
 Start  Stop   Length Name               Class

 00000H 0928DH 0928EH seg000             CODE
 0928EH 1000FH 06D82H seg001             CODE
 10010H 115C1H 015B2H seg002             CODE
 115C2H 1229BH 00CDAH seg003             CODE
 1229CH 13C20H 01985H seg004             CODE
 13C21H 13F0FH 002EFH seg005             CODE
 13F10H 17B1FH 03C10H seg006             CODE
 17B20H 180DFH 005C0H seg007             CODE
 180E0H 18D2FH 00C50H seg008             CODE
 18D30H 1E5FFH 058D0H dseg               DATA
 1E600H 1E67FH 00080H seg010             STACK


  Address         Publics by Value

 0000:0000       start
 0000:0037       loc_37
 0000:0075       loc_75
 0000:007E       loc_7E
 0000:0083       loc_83
 0000:00D7       loc_D7
 0000:010B       loc_10B
 0000:0110       loc_110
 0000:0146       __cleanup
 0000:0159       __checknull
 0000:015A       __terminate
 0000:0178       sub_178
 0000:01BB       __restorezero
 0000:01E8       sub_1E8
 0000:01EF       loc_1EF
 0000:0207       loc_207
 0000:020C       loc_20C
 0000:0224       loc_224
 0000:022B       locret_22B
 0000:022C       sub_22C
 0000:0232       loc_232
 0000:0248       loc_248
 0000:024D       loc_24D
 0000:0265       loc_265
 0000:026C       locret_26C
 0000:026D       DGROUP@
 0000:026F       __MMODEL
 0000:02E2       loc_2E2
 0000:03BB       ___fpreset
 0000:03E9       loc_3E9
 0000:041D       loc_41D
 0000:0441       loc_441
 0000:045B       aOG
 0000:0484       byte_484
 0000:0487       byte_487
 0000:048E       __fpuint
 0000:0492       sub_492
 0000:04AB       _gcvt
 0000:04F5       loc_4F5
 0000:04F7       loc_4F7
 0000:0507       __strtold
 0000:0547       loc_547
 0000:0553       loc_553
 0000:056B       loc_56B
 0000:0575       _strtod
 0000:05AB       __LDTRUNC
 0000:05C5       loc_5C5
 0000:05E0       loc_5E0
 0000:0607       loc_607
 0000:060F       loc_60F
 0000:0619       loc_619
 0000:0630       loc_630
 0000:0637       loc_637
 0000:0643       loc_643
 0000:0657       loc_657
 0000:0663       loc_663
 0000:066B       unknown_libname_1
 0000:0676       loc_676
 0000:0684       loc_684
 0000:068B       loc_68B
 0000:068F       sub_68F
 0000:06B0       loc_6B0
 0000:06C9       loc_6C9
 0000:06D2       loc_6D2
 0000:06DB       loc_6DB
 0000:0706       loc_706
 0000:0711       loc_711
 0000:0719       loc_719
 0000:0724       loc_724
 0000:072B       loc_72B
 0000:0734       loc_734
 0000:0751       loc_751
 0000:0755       loc_755
 0000:076B       loc_76B
 0000:076F       loc_76F
 0000:0772       loc_772
 0000:0783       loc_783
 0000:079A       loc_79A
 0000:07B3       loc_7B3
 0000:07BB       loc_7BB
 0000:07BD       loc_7BD
 0000:07D0       loc_7D0
 0000:07D3       loc_7D3
 0000:07F0       loc_7F0
 0000:0802       loc_802
 0000:081B       loc_81B
 0000:0825       loc_825
 0000:082C       loc_82C
 0000:083F       unknown_libname_2
 0000:087E       loc_87E
 0000:0893       loc_893
 0000:08A1       loc_8A1
 0000:08B2       loc_8B2
 0000:08B5       loc_8B5
 0000:08DE       loc_8DE
 0000:08E1       loc_8E1
 0000:08E4       loc_8E4
 0000:0910       loc_910
 0000:0912       loc_912
 0000:0915       loc_915
 0000:091C       loc_91C
 0000:091F       loc_91F
 0000:092F       loc_92F
 0000:0948       loc_948
 0000:0981       loc_981
 0000:0984       loc_984
 0000:0989       loc_989
 0000:099F       loc_99F
 0000:09A5       loc_9A5
 0000:09B2       loc_9B2
 0000:09C2       loc_9C2
 0000:09E0       loc_9E0
 0000:09F3       loc_9F3
 0000:0A12       loc_A12
 0000:0A14       loc_A14
 0000:0A24       loc_A24
 0000:0A2F       loc_A2F
 0000:0A3B       loc_A3B
 0000:0A53       loc_A53
 0000:0A6B       loc_A6B
 0000:0A72       loc_A72
 0000:0A7C       loc_A7C
 0000:0A90       loc_A90
 0000:0AA0       loc_AA0
 0000:0AA3       loc_AA3
 0000:0AAC       loc_AAC
 0000:0AC1       loc_AC1
 0000:0AFC       loc_AFC
 0000:0B01       loc_B01
 0000:0B03       loc_B03
 0000:0B3E       loc_B3E
 0000:0B43       loc_B43
 0000:0B46       loc_B46
 0000:0B4E       loc_B4E
 0000:0B54       loc_B54
 0000:0B5C       loc_B5C
 0000:0B99       loc_B99
 0000:0BAC       loc_BAC
 0000:0BD2       loc_BD2
 0000:0BDE       __XCVT
 0000:0C0E       off_C0E
 0000:0C14       loc_C14
 0000:0C1A       loc_C1A
 0000:0C20       loc_C20
 0000:0C2D       loc_C2D
 0000:0C31       loc_C31
 0000:0C5D       loc_C5D
 0000:0C62       loc_C62
 0000:0C67       loc_C67
 0000:0C7E       loc_C7E
 0000:0C86       loc_C86
 0000:0C8F       loc_C8F
 0000:0C95       loc_C95
 0000:0CCA       loc_CCA
 0000:0CD2       loc_CD2
 0000:0CD6       loc_CD6
 0000:0CDE       loc_CDE
 0000:0CE6       loc_CE6
 0000:0CF8       loc_CF8
 0000:0D00       loc_D00
 0000:0D23       loc_D23
 0000:0D2A       loc_D2A
 0000:0D50       loc_D50
 0000:0D79       loc_D79
 0000:0D80       loc_D80
 0000:0D9B       loc_D9B
 0000:0DAC       loc_DAC
 0000:0DB2       loc_DB2
 0000:0DBD       loc_DBD
 0000:0DC5       loc_DC5
 0000:0DD2       loc_DD2
 0000:0DDA       loc_DDA
 0000:0DF4       _pow10
 0000:0E01       __POW10
 0000:0E13       loc_E13
 0000:0E20       loc_E20
 0000:0E2A       loc_E2A
 0000:0E30       loc_E30
 0000:0E4D       loc_E4D
 0000:0E51       loc_E51
 0000:0E5A       loc_E5A
 0000:0E66       loc_E66
 0000:0E72       loc_E72
 0000:0E7E       loc_E7E
 0000:0E8A       loc_E8A
 0000:0E96       loc_E96
 0000:0EA2       loc_EA2
 0000:0EAE       loc_EAE
 0000:0EBA       loc_EBA
 0000:0EC5       loc_EC5
 0000:0ECC       __fperror
 0000:0F0F       loc_F0F
 0000:0F19       loc_F19
 0000:0F44       loc_F44
 0000:0F48       loc_F48
 0000:0F76       F_FTOL@
 0000:0FA2       _biosdisk
 0000:0FD8       loc_FD8
 0000:0FE0       _bioskey
 0000:0FFD       loc_FFD
 0000:1005       loc_1005
 0000:1009       __VPTR
 0000:102D       __VRAM
 0000:1058       loc_1058
 0000:1062       loc_1062
 0000:106D       loc_106D
 0000:106E       loc_106E
 0000:1073       loc_1073
 0000:107E       loc_107E
 0000:107F       loc_107F
 0000:1084       loc_1084
 0000:108D       loc_108D
 0000:1092       loc_1092
 0000:109D       loc_109D
 0000:10A7       __CPUTN
 0000:10CA       loc_10CA
 0000:10E9       loc_10E9
 0000:10F2       loc_10F2
 0000:1101       loc_1101
 0000:110B       loc_110B
 0000:1110       loc_1110
 0000:1145       loc_1145
 0000:1163       loc_1163
 0000:1166       loc_1166
 0000:117E       loc_117E
 0000:11A4       loc_11A4
 0000:11B1       loc_11B1
 0000:11CB       off_11CB
 0000:11D9       _cprintf
 0000:11F7       _gettext
 0000:1216       loc_1216
 0000:1228       loc_1228
 0000:124A       loc_124A
 0000:1255       loc_1255
 0000:125B       _puttext
 0000:127A       loc_127A
 0000:128C       loc_128C
 0000:12AE       loc_12AE
 0000:12B9       loc_12B9
 0000:12BF       _movetext
 0000:12FB       loc_12FB
 0000:12FF       loc_12FF
 0000:1320       loc_1320
 0000:1325       loc_1325
 0000:1353       loc_1353
 0000:1361       loc_1361
 0000:1367       _putch
 0000:1380       sub_1380
 0000:13BA       sub_13BA
 0000:13DA       loc_13DA
 0000:13E6       loc_13E6
 0000:13F2       sub_13F2
 0000:1411       loc_1411
 0000:1413       loc_1413
 0000:1426       loc_1426
 0000:1434       loc_1434
 0000:1436       loc_1436
 0000:144B       loc_144B
 0000:146A       loc_146A
 0000:1477       loc_1477
 0000:149B       loc_149B
 0000:14A8       loc_14A8
 0000:14C4       __SCREENIO
 0000:14EC       loc_14EC
 0000:14FC       loc_14FC
 0000:1502       __VALIDATEXY
 0000:1553       loc_1553
 0000:1555       loc_1555
 0000:155B       sub_155B
 0000:156B       loc_156B
 0000:1576       loc_1576
 0000:1581       __SCROLL
 0000:1594       loc_1594
 0000:159E       loc_159E
 0000:15A7       loc_15A7
 0000:15BC       loc_15BC
 0000:163E       loc_163E
 0000:16BD       loc_16BD
 0000:16CD       loc_16CD
 0000:16E6       loc_16E6
 0000:16EE       __wherexy
 0000:16FC       _wherex
 0000:170F       _wherey
 0000:1726       sub_1726
 0000:172D       loc_172D
 0000:1745       loc_1745
 0000:1751       loc_1751
 0000:1757       sub_1757
 0000:1769       __VideoInt
 0000:177E       loc_177E
 0000:1782       loc_1782
 0000:178A       loc_178A
 0000:1799       loc_1799
 0000:17A3       loc_17A3
 0000:17D7       loc_17D7
 0000:17E1       loc_17E1
 0000:17F3       loc_17F3
 0000:17F8       __c0crtinit
 0000:1819       __crtinit
 0000:1847       loc_1847
 0000:1861       loc_1861
 0000:1863       loc_1863
 0000:1871       loc_1871
 0000:187C       loc_187C
 0000:18A6       loc_18A6
 0000:18A8       loc_18A8
 0000:18B7       loc_18B7
 0000:18BA       loc_18BA
 0000:18DF       _getch
 0000:18F2       loc_18F2
 0000:18F7       loc_18F7
 0000:18FC       __Ngetche
 0000:18FF       _getche
 0000:1917       loc_1917
 0000:1925       loc_1925
 0000:192E       __Nungetch
 0000:1931       _ungetch
 0000:1942       loc_1942
 0000:194F       loc_194F
 0000:1953       _kbhit
 0000:1961       loc_1961
 0000:1966       loc_1966
 0000:1969       _stpcpy
 0000:19A6       _strtok
 0000:19C5       loc_19C5
 0000:19D3       loc_19D3
 0000:19E5       loc_19E5
 0000:19EE       loc_19EE
 0000:19FB       loc_19FB
 0000:1A05       loc_1A05
 0000:1A15       loc_1A15
 0000:1A24       loc_1A24
 0000:1A32       loc_1A32
 0000:1A4B       loc_1A4B
 0000:1A4E       loc_1A4E
 0000:1A5B       loc_1A5B
 0000:1A65       loc_1A65
 0000:1A6B       loc_1A6B
 0000:1A71       _memcmp
 0000:1A92       loc_1A92
 0000:1A99       _memcpy
 0000:1AB1       loc_1AB1
 0000:1ABD       _setmem
 0000:1AD8       loc_1AD8
 0000:1ADF       loc_1ADF
 0000:1AE3       _memset
 0000:1B06       _movmem
 0000:1B23       loc_1B23
 0000:1B26       loc_1B26
 0000:1B39       loc_1B39
 0000:1B43       loc_1B43
 0000:1B52       loc_1B52
 0000:1B58       _memmove
 0000:1B7D       _strcat
 0000:1BAD       loc_1BAD
 0000:1BB4       loc_1BB4
 0000:1BBC       _strcmp
 0000:1BEC       _strcpy
 0000:1C15       _stricmp
 0000:1C2A       loc_1C2A
 0000:1C3F       loc_1C3F
 0000:1C4A       loc_1C4A
 0000:1C4E       loc_1C4E
 0000:1C56       _strlen
 0000:1C69       loc_1C69
 0000:1C73       loc_1C73
 0000:1C77       _strstr
 0000:1C8D       loc_1C8D
 0000:1CB2       loc_1CB2
 0000:1CC3       loc_1CC3
 0000:1CCC       loc_1CCC
 0000:1CD9       loc_1CD9
 0000:1CDF       loc_1CDF
 0000:1CE3       _clearerr
 0000:1CF4       __dos_getdrive
 0000:1D0A       __dos_setdrive
 0000:1D24       _getdisk
 0000:1D42       _setdisk
 0000:1D65       __MKNAME
 0000:1D7A       loc_1D7A
 0000:1D8C       loc_1D8C
 0000:1D92       loc_1D92
 0000:1DC2       __TMPNAM
 0000:1DCD       loc_1DCD
 0000:1DF1       loc_1DF1
 0000:1E0C       loc_1E0C
 0000:1E1D       loc_1E1D
 0000:1E1F       loc_1E1F
 0000:1E46       loc_1E46
 0000:1E57       loc_1E57
 0000:1E59       loc_1E59
 0000:1E9F       loc_1E9F
 0000:1ECE       loc_1ECE
 0000:1EFD       loc_1EFD
 0000:1F2C       loc_1F2C
 0000:1F2F       __xclose
 0000:1F36       loc_1F36
 0000:1F40       loc_1F40
 0000:1F49       _chdir
 0000:1F5D       loc_1F5D
 0000:1F61       loc_1F61
 0000:1F65       _getcurdir
 0000:1F7C       loc_1F7C
 0000:1F80       loc_1F80
 0000:1F84       __IOERROR
 0000:1F95       loc_1F95
 0000:1F98       loc_1F98
 0000:1FA7       loc_1FA7
 0000:1FB5       loc_1FB5
 0000:1FC2       __DOSERROR
 0000:1FD6       _isatty
 0000:1FEB       _lseek
 0000:200F       loc_200F
 0000:2014       loc_2014
 0000:2018       __rtl_read
 0000:2030       loc_2030
 0000:2043       loc_2043
 0000:2044       loc_2044
 0000:2047       loc_2047
 0000:204B       __read
 0000:2067       _unlink
 0000:207B       loc_207B
 0000:207F       loc_207F
 0000:2083       sub_2083
 0000:208A       sub_208A
 0000:2093       sub_2093
 0000:209B       __VPRINTER
 0000:20B5       sub_20B5
 0000:20C2       sub_20C2
 0000:20CB       sub_20CB
 0000:20EE       loc_20EE
 0000:20FE       locret_20FE
 0000:20FF       loc_20FF
 0000:2108       loc_2108
 0000:210B       loc_210B
 0000:210E       loc_210E
 0000:2118       loc_2118
 0000:2126       loc_2126
 0000:2129       loc_2129
 0000:214E       loc_214E
 0000:2150       loc_2150
 0000:216A       loc_216A
 0000:2171       loc_2171
 0000:2174       loc_2174
 0000:217F       loc_217F
 0000:218A       loc_218A
 0000:2198       loc_2198
 0000:219A       loc_219A
 0000:21A0       loc_21A0
 0000:21A4       loc_21A4
 0000:21A8       loc_21A8
 0000:21BC       loc_21BC
 0000:21BF       loc_21BF
 0000:21D8       loc_21D8
 0000:21DD       loc_21DD
 0000:21E0       loc_21E0
 0000:21ED       loc_21ED
 0000:21FA       loc_21FA
 0000:221C       loc_221C
 0000:2238       loc_2238
 0000:223F       loc_223F
 0000:2244       loc_2244
 0000:224B       loc_224B
 0000:224F       loc_224F
 0000:2253       loc_2253
 0000:2259       loc_2259
 0000:226D       loc_226D
 0000:227D       loc_227D
 0000:228E       loc_228E
 0000:22AA       loc_22AA
 0000:22AE       loc_22AE
 0000:22BE       loc_22BE
 0000:22CA       loc_22CA
 0000:22CD       loc_22CD
 0000:22F8       loc_22F8
 0000:231A       loc_231A
 0000:231D       loc_231D
 0000:233D       loc_233D
 0000:235A       loc_235A
 0000:2365       loc_2365
 0000:236C       loc_236C
 0000:2377       loc_2377
 0000:237A       loc_237A
 0000:238D       loc_238D
 0000:23AE       loc_23AE
 0000:23B5       loc_23B5
 0000:23BE       loc_23BE
 0000:23CC       loc_23CC
 0000:23D6       loc_23D6
 0000:23DD       loc_23DD
 0000:23EE       loc_23EE
 0000:23FE       loc_23FE
 0000:2401       loc_2401
 0000:2427       loc_2427
 0000:2429       loc_2429
 0000:2433       loc_2433
 0000:2444       loc_2444
 0000:2450       loc_2450
 0000:2456       loc_2456
 0000:245A       loc_245A
 0000:246C       loc_246C
 0000:2486       loc_2486
 0000:248D       loc_248D
 0000:2491       loc_2491
 0000:2498       loc_2498
 0000:249A       loc_249A
 0000:249E       loc_249E
 0000:24AC       loc_24AC
 0000:24AE       loc_24AE
 0000:24B4       loc_24B4
 0000:24BB       loc_24BB
 0000:24BE       loc_24BE
 0000:24D6       loc_24D6
 0000:24DD       loc_24DD
 0000:24F7       loc_24F7
 0000:24FA       loc_24FA
 0000:2505       loc_2505
 0000:250E       loc_250E
 0000:2517       loc_2517
 0000:2523       loc_2523
 0000:2526       loc_2526
 0000:252E       off_252E
 0000:255E       _close
 0000:2575       loc_2575
 0000:2586       loc_2586
 0000:258A       _fclose
 0000:25A2       loc_25A2
 0000:25B1       loc_25B1
 0000:25D0       loc_25D0
 0000:25EA       loc_25EA
 0000:2603       loc_2603
 0000:2642       loc_2642
 0000:264B       _fflush
 0000:2663       loc_2663
 0000:2672       loc_2672
 0000:2695       loc_2695
 0000:269E       loc_269E
 0000:26CD       loc_26CD
 0000:2719       loc_2719
 0000:271E       loc_271E
 0000:2720       loc_2720
 0000:2726       _fgets
 0000:273E       loc_273E
 0000:2747       loc_2747
 0000:2771       loc_2771
 0000:277E       loc_277E
 0000:2785       loc_2785
 0000:27A0       loc_27A0
 0000:27B8       loc_27B8
 0000:27BE       loc_27BE
 0000:27C4       __flushall
 0000:27E1       loc_27E1
 0000:2800       loc_2800
 0000:2804       loc_2804
 0000:2817       _flushall
 0000:2820       __flushout
 0000:283D       loc_283D
 0000:288F       loc_288F
 0000:2892       loc_2892
 0000:2896       loc_2896
 0000:28A9       sub_28A9
 0000:28CF       loc_28CF
 0000:28D9       loc_28D9
 0000:28E1       loc_28E1
 0000:28EB       loc_28EB
 0000:290C       loc_290C
 0000:2917       loc_2917
 0000:2927       loc_2927
 0000:2932       loc_2932
 0000:293D       loc_293D
 0000:2946       loc_2946
 0000:294A       loc_294A
 0000:2959       loc_2959
 0000:295D       loc_295D
 0000:297B       loc_297B
 0000:2983       __OPENFP
 0000:29D3       loc_29D3
 0000:29E3       loc_29E3
 0000:29FF       loc_29FF
 0000:2A13       loc_2A13
 0000:2A15       loc_2A15
 0000:2A39       loc_2A39
 0000:2A3F       loc_2A3F
 0000:2A4E       loc_2A4E
 0000:2A56       __GETFP
 0000:2A66       loc_2A66
 0000:2A87       loc_2A87
 0000:2A97       loc_2A97
 0000:2A9D       loc_2A9D
 0000:2AA3       _fopen
 0000:2ABE       loc_2ABE
 0000:2AD6       loc_2AD6
 0000:2ADC       _fprintf
 0000:2AFC       _fputs
 0000:2B20       loc_2B20
 0000:2B24       loc_2B24
 0000:2B48       loc_2B48
 0000:2B4B       loc_2B4B
 0000:2B51       sub_2B51
 0000:2B5C       loc_2B5C
 0000:2B70       loc_2B70
 0000:2B77       loc_2B77
 0000:2B88       loc_2B88
 0000:2B92       loc_2B92
 0000:2BAB       loc_2BAB
 0000:2BBD       loc_2BBD
 0000:2BF1       loc_2BF1
 0000:2C01       loc_2C01
 0000:2C0B       loc_2C0B
 0000:2C14       loc_2C14
 0000:2C43       loc_2C43
 0000:2C50       loc_2C50
 0000:2C57       loc_2C57
 0000:2C5C       loc_2C5C
 0000:2C65       loc_2C65
 0000:2C70       _fread
 0000:2C83       loc_2C83
 0000:2CA1       loc_2CA1
 0000:2CC1       loc_2CC1
 0000:2CCA       loc_2CCA
 0000:2CDE       loc_2CDE
 0000:2CFE       loc_2CFE
 0000:2D04       loc_2D04
 0000:2D0A       sub_2D0A
 0000:2D27       loc_2D27
 0000:2D34       loc_2D34
 0000:2D5B       loc_2D5B
 0000:2D6A       loc_2D6A
 0000:2D73       loc_2D73
 0000:2D82       loc_2D82
 0000:2D89       loc_2D89
 0000:2D94       _fseek
 0000:2DAF       loc_2DAF
 0000:2DCC       loc_2DCC
 0000:2E13       loc_2E13
 0000:2E15       loc_2E15
 0000:2E19       _ftell
 0000:2E4D       loc_2E4D
 0000:2E59       loc_2E59
 0000:2E95       loc_2E95
 0000:2EC1       loc_2EC1
 0000:2ECD       loc_2ECD
 0000:2EDF       loc_2EDF
 0000:2EEF       loc_2EEF
 0000:2EF5       loc_2EF5
 0000:2EFB       _fwrite
 0000:2F0C       loc_2F0C
 0000:2F2A       loc_2F2A
 0000:2F43       loc_2F43
 0000:2F4A       loc_2F4A
 0000:2F67       loc_2F67
 0000:2F6C       loc_2F6C
 0000:2F83       loc_2F83
 0000:2F8B       loc_2F8B
 0000:2F8E       loc_2F8E
 0000:2F94       _perror
 0000:2FC4       loc_2FC4
 0000:2FCC       loc_2FCC
 0000:3000       loc_3000
 0000:302B       _printf
 0000:304A       __fputc
 0000:306C       _fputc
 0000:30A8       loc_30A8
 0000:30B9       loc_30B9
 0000:30CD       loc_30CD
 0000:30D0       loc_30D0
 0000:30E3       loc_30E3
 0000:30EE       loc_30EE
 0000:3119       loc_3119
 0000:3147       loc_3147
 0000:3158       loc_3158
 0000:316C       loc_316C
 0000:316F       loc_316F
 0000:319C       loc_319C
 0000:31CA       loc_31CA
 0000:31E9       loc_31E9
 0000:31F9       loc_31F9
 0000:31FE       loc_31FE
 0000:3203       loc_3203
 0000:3207       _fputchar
 0000:321F       __FPUTN
 0000:323A       loc_323A
 0000:325A       loc_325A
 0000:3267       loc_3267
 0000:3275       loc_3275
 0000:327F       loc_327F
 0000:32A0       loc_32A0
 0000:32CD       loc_32CD
 0000:32EF       loc_32EF
 0000:32F2       loc_32F2
 0000:330F       loc_330F
 0000:3323       loc_3323
 0000:3355       loc_3355
 0000:3382       loc_3382
 0000:33A4       loc_33A4
 0000:33A6       loc_33A6
 0000:33B2       loc_33B2
 0000:33DB       loc_33DB
 0000:33F2       loc_33F2
 0000:33F7       loc_33F7
 0000:3403       loc_3403
 0000:3422       loc_3422
 0000:3426       loc_3426
 0000:3429       loc_3429
 0000:3431       _puts
 0000:3445       loc_3445
 0000:346E       loc_346E
 0000:3489       loc_3489
 0000:348C       loc_348C
 0000:3492       _setvbuf
 0000:34A6       loc_34A6
 0000:34AF       loc_34AF
 0000:34B9       loc_34B9
 0000:34CF       loc_34CF
 0000:34E3       loc_34E3
 0000:3500       loc_3500
 0000:351A       loc_351A
 0000:3581       loc_3581
 0000:3586       loc_3586
 0000:35B1       loc_35B1
 0000:35B3       loc_35B3
 0000:35B7       ___write
 0000:35D3       loc_35D3
 0000:35E1       loc_35E1
 0000:3601       loc_3601
 0000:3625       loc_3625
 0000:3644       loc_3644
 0000:3661       loc_3661
 0000:3687       loc_3687
 0000:36B7       loc_36B7
 0000:36C1       loc_36C1
 0000:36CB       loc_36CB
 0000:36D4       loc_36D4
 0000:370E       loc_370E
 0000:3713       loc_3713
 0000:3716       loc_3716
 0000:3718       loc_3718
 0000:371B       loc_371B
 0000:3721       __xfclose
 0000:3738       loc_3738
 0000:3755       loc_3755
 0000:375C       loc_375C
 0000:376B       __xfflush
 0000:3782       loc_3782
 0000:379E       loc_379E
 0000:37A5       loc_37A5
 0000:37B4       __chmod
 0000:37CD       loc_37CD
 0000:37D1       loc_37D1
 0000:37D5       __rtl_close
 0000:37EF       loc_37EF
 0000:37F3       loc_37F3
 0000:37F7       __close
 0000:3808       _eof
 0000:381F       loc_381F
 0000:3831       loc_3831
 0000:3873       loc_3873
 0000:3878       loc_3878
 0000:387C       loc_387C
 0000:387D       loc_387D
 0000:3880       loc_3880
 0000:3886       _findfirst
 0000:38B5       loc_38B5
 0000:38B9       loc_38B9
 0000:38BD       _findnext
 0000:38E6       loc_38E6
 0000:38EA       loc_38EA
 0000:38EE       sub_38EE
 0000:3905       loc_3905
 0000:391F       loc_391F
 0000:3923       loc_3923
 0000:3933       sub_3933
 0000:3946       loc_3946
 0000:3980       loc_3980
 0000:3999       loc_3999
 0000:39A6       loc_39A6
 0000:39A9       loc_39A9
 0000:39AF       __fgetc
 0000:39CA       __Nfgetc
 0000:39CD       _fgetc
 0000:39DD       loc_39DD
 0000:39EB       loc_39EB
 0000:3A04       loc_3A04
 0000:3A0F       loc_3A0F
 0000:3A33       loc_3A33
 0000:3A4C       loc_3A4C
 0000:3A5A       loc_3A5A
 0000:3A96       loc_3A96
 0000:3AA7       loc_3AA7
 0000:3AAC       loc_3AAC
 0000:3ABE       loc_3ABE
 0000:3ACB       loc_3ACB
 0000:3ACF       _fgetchar
 0000:3ADF       sub_3ADF
 0000:3AF4       loc_3AF4
 0000:3AF8       loc_3AF8
 0000:3AFE       sub_3AFE
 0000:3B14       _open
 0000:3B2C       loc_3B2C
 0000:3B59       loc_3B59
 0000:3B68       loc_3B68
 0000:3B7D       loc_3B7D
 0000:3B8E       loc_3B8E
 0000:3B91       loc_3B91
 0000:3BB1       loc_3BB1
 0000:3BBC       loc_3BBC
 0000:3BC2       loc_3BC2
 0000:3BCD       loc_3BCD
 0000:3BE3       loc_3BE3
 0000:3BE6       loc_3BE6
 0000:3C3A       loc_3C3A
 0000:3C47       loc_3C47
 0000:3C6F       loc_3C6F
 0000:3C8D       loc_3C8D
 0000:3C8F       loc_3C8F
 0000:3CA4       loc_3CA4
 0000:3CA7       loc_3CA7
 0000:3CB3       loc_3CB3
 0000:3CB6       loc_3CB6
 0000:3CBC       __rtl_open
 0000:3CD9       loc_3CD9
 0000:3D05       loc_3D05
 0000:3D09       loc_3D09
 0000:3D0F       __open
 0000:3D28       ___read
 0000:3D43       loc_3D43
 0000:3D59       loc_3D59
 0000:3D5E       loc_3D5E
 0000:3D88       loc_3D88
 0000:3D8D       loc_3D8D
 0000:3D98       loc_3D98
 0000:3DA7       loc_3DA7
 0000:3DC6       loc_3DC6
 0000:3DCC       loc_3DCC
 0000:3DCE       loc_3DCE
 0000:3DF0       loc_3DF0
 0000:3DF3       loc_3DF3
 0000:3DF9       __rtl_write
 0000:3E11       loc_3E11
 0000:3E31       loc_3E31
 0000:3E32       loc_3E32
 0000:3E35       loc_3E35
 0000:3E39       __write
 0000:3E55       _ioctl
 0000:3E78       loc_3E78
 0000:3E7A       loc_3E7A
 0000:3E7E       loc_3E7E
 0000:3E82       _localeconv
 0000:3E8C       _strlwr
 0000:3E9A       loc_3E9A
 0000:3EA5       loc_3EA5
 0000:3EB2       LXMUL@
 0000:3EBB       loc_3EBB
 0000:3EC2       loc_3EC2
 0000:3EC9       N_LDIV@
 0000:3ECC       LDIV@
 0000:3ED0       N_LUDIV@
 0000:3ED3       F_LUDIV@
 0000:3ED8       N_LMOD@
 0000:3EDB       F_LMOD@
 0000:3EE0       N_LUMOD@
 0000:3EE3       LUMOD@
 0000:3EE6       loc_3EE6
 0000:3F05       loc_3F05
 0000:3F19       loc_3F19
 0000:3F27       loc_3F27
 0000:3F31       loc_3F31
 0000:3F43       loc_3F43
 0000:3F48       loc_3F48
 0000:3F57       loc_3F57
 0000:3F64       loc_3F64
 0000:3F6A       loc_3F6A
 0000:3F73       loc_3F73
 0000:3F77       N_LXLSH@
 0000:3F7A       LXLSH@
 0000:3F8F       loc_3F8F
 0000:3F98       N_LXMUL@
 0000:3FA1       loc_3FA1
 0000:3FA8       loc_3FA8
 0000:3FAF       __LONGTOA
 0000:3FE4       loc_3FE4
 0000:3FE9       loc_3FE9
 0000:3FF9       loc_3FF9
 0000:4001       loc_4001
 0000:400D       loc_400D
 0000:4019       loc_4019
 0000:401C       loc_401C
 0000:401F       loc_401F
 0000:4031       __UTOA
 0000:4055       _itoa
 0000:406A       loc_406A
 0000:406E       loc_406E
 0000:4084       _ultoa
 0000:40A5       _ltoa
 0000:40C4       loc_40C4
 0000:40C6       loc_40C6
 0000:40D1       sub_40D1
 0000:40E7       loc_40E7
 0000:40FE       loc_40FE
 0000:4102       loc_4102
 0000:4116       loc_4116
 0000:4128       loc_4128
 0000:4136       loc_4136
 0000:4140       loc_4140
 0000:415B       unknown_libname_3
 0000:417A       sub_417A
 0000:417E       sub_417E
 0000:418E       unknown_libname_4
 0000:4216       loc_4216
 0000:4293       loc_4293
 0000:42F1       loc_42F1
 0000:4318       byte_4318
 0000:4320       loc_4320
 0000:4352       byte_4352
 0000:43DA       loc_43DA
 0000:43DC       loc_43DC
 0000:43DE       loc_43DE
 0000:441A       _registerbgidriver
 0000:4430       _registerbgifont
 0000:4446       set_new_handler(void (*)(void))
 0000:4474       loc_4474
 0000:448A       sub_448A
 0000:44B0       loc_44B0
 0000:44B3       operator new(uint)
 0000:44D0       loc_44D0
 0000:44D3       loc_44D3
 0000:44D8       loc_44D8
 0000:44E0       loc_44E0
 0000:44FC       loc_44FC
 0000:4508       word_4508
 0000:450A       word_450A
 0000:450C       word_450C
 0000:450E       word_450E
 0000:4510       word_4510
 0000:4512       nbytes
 0000:4514       loc_4514
 0000:452F       loc_452F
 0000:4548       sub_4548
 0000:454D       loc_454D
 0000:4552       loc_4552
 0000:4567       loc_4567
 0000:4570       loc_4570
 0000:4577       sub_4577
 0000:45B6       loc_45B6
 0000:45BD       loc_45BD
 0000:45C0       loc_45C0
 0000:45D2       loc_45D2
 0000:45E8       sub_45E8
 0000:4609       loc_4609
 0000:4611       sub_4611
 0000:463A       loc_463A
 0000:4648       _farfree
 0000:4665       loc_4665
 0000:4668       loc_4668
 0000:4671       sub_4671
 0000:469A       loc_469A
 0000:46D1       loc_46D1
 0000:46D5       sub_46D5
 0000:46F8       loc_46F8
 0000:4710       loc_4710
 0000:472B       loc_472B
 0000:472F       sub_472F
 0000:4752       _malloc
 0000:475C       _farmalloc
 0000:4765       loc_4765
 0000:479C       loc_479C
 0000:47AC       loc_47AC
 0000:47B1       loc_47B1
 0000:47B6       loc_47B6
 0000:47BB       loc_47BB
 0000:47C0       loc_47C0
 0000:47D0       loc_47D0
 0000:47D9       sub_47D9
 0000:47F3       loc_47F3
 0000:4817       loc_4817
 0000:4826       loc_4826
 0000:4844       loc_4844
 0000:4855       sub_4855
 0000:488D       loc_488D
 0000:4892       loc_4892
 0000:48A1       loc_48A1
 0000:48B9       _realloc
 0000:48C0       _farrealloc
 0000:48C6       loc_48C6
 0000:4910       loc_4910
 0000:4915       loc_4915
 0000:491A       loc_491A
 0000:4925       loc_4925
 0000:492E       loc_492E
 0000:4931       loc_4931
 0000:493A       sub_493A
 0000:497F       loc_497F
 0000:499E       loc_499E
 0000:49B0       loc_49B0
 0000:49C0       loc_49C0
 0000:49C8       __brk
 0000:4A00       loc_4A00
 0000:4A05       loc_4A05
 0000:4A07       loc_4A07
 0000:4A0B       __sbrk
 0000:4A36       loc_4A36
 0000:4A86       loc_4A86
 0000:4A8E       loc_4A8E
 0000:4A94       loc_4A94
 0000:4A9A       _farcoreleft
 0000:4AD2       loc_4AD2
 0000:4ADA       loc_4ADA
 0000:4AEA       _setblock
 0000:4B00       loc_4B00
 0000:4B06       loc_4B06
 0000:4B0A       SCOPY@
 0000:4B26       N_PADD@
 0000:4B29       F_PADD@
 0000:4B39       loc_4B39
 0000:4B41       loc_4B41
 0000:4B43       sub_4B43
 0000:4B55       N_PSUB@
 0000:4B58       F_PSUB@
 0000:4B68       loc_4B68
 0000:4B70       loc_4B70
 0000:4B86       N_PSBP@
 0000:4B89       PSBP@
 0000:4BAE       N_PCMP@
 0000:4BCE       locret_4BCE
 0000:4BCF       ___ErrorMessage
 0000:4BF9       unknown_libname_5
 0000:4C4C       sub_4C4C
 0000:4C54       locret_4C54
 0000:4C55       sub_4C55
 0000:4C67       _harderr
 0000:4C7D       _hardresume
 0000:4C8F       _hardretn
 0000:4CB3       loc_4CB3
 0000:4CBB       loc_4CBB
 0000:4CBF       sub_4CBF
 0000:4CCA       _abort
 0000:4CDE       _atexit
 0000:4CEF       loc_4CEF
 0000:4D0B       loc_4D0B
 0000:4D14       sub_4D14
 0000:4D21       loc_4D21
 0000:4D31       loc_4D31
 0000:4D41       loc_4D41
 0000:4D5F       loc_4D5F
 0000:4D68       loc_4D68
 0000:4D6E       _exit
 0000:4D81       __exit
 0000:4D97       __cexit
 0000:4DA9       __c_exit
 0000:4DB9       __abort
 0000:4DD4       _getvect
 0000:4DE7       _setvect
 0000:4DFC       _segread
 0000:4E41       loc_4E41
 0000:4E57       loc_4E57
 0000:4E6B       loc_4E6B
 0000:4E75       loc_4E75
 0000:4E94       loc_4E94
 0000:4EC9       loc_4EC9
 0000:4EDD       loc_4EDD
 0000:4EE7       loc_4EE7
 0000:4F06       loc_4F06
 0000:4F3B       loc_4F3B
 0000:4F4F       loc_4F4F
 0000:4F59       loc_4F59
 0000:4F78       loc_4F78
 0000:4FAD       loc_4FAD
 0000:4FC1       loc_4FC1
 0000:4FCB       loc_4FCB
 0000:4FEA       loc_4FEA
 0000:501F       loc_501F
 0000:5033       loc_5033
 0000:503D       loc_503D
 0000:5065       loc_5065
 0000:5071       sub_5071
 0000:5078       loc_5078
 0000:5089       loc_5089
 0000:5092       loc_5092
 0000:5096       _signal
 0000:50B6       loc_50B6
 0000:50D5       loc_50D5
 0000:5120       loc_5120
 0000:5132       loc_5132
 0000:513A       loc_513A
 0000:513F       loc_513F
 0000:5165       loc_5165
 0000:519E       loc_519E
 0000:51AF       loc_51AF
 0000:51B8       loc_51B8
 0000:51BE       loc_51BE
 0000:51C4       _raise
 0000:51E1       loc_51E1
 0000:51FF       loc_51FF
 0000:5219       loc_5219
 0000:5222       loc_5222
 0000:522E       loc_522E
 0000:5253       loc_5253
 0000:5255       loc_5255
 0000:525B       _int86
 0000:5290       _int86x
 0000:52CE       loc_52CE
 0000:5324       loc_5324
 0000:532A       sub_532A
 0000:532F       sub_532F
 0000:534D       loc_534D
 0000:535A       loc_535A
 0000:5370       loc_5370
 0000:5379       loc_5379
 0000:537F       _delay
 0000:53AE       loc_53AE
 0000:53C1       loc_53C1
 0000:53C4       loc_53C4
 0000:53C7       loc_53C7
 0000:53DA       loc_53DA
 0000:53E0       _getdate
 0000:53F7       _gettime
 0000:540E       terminate(void)
 0000:5418       set_terminate(void (*)(void))
 0000:544E       loc_544E
 0000:548D       ___call_terminate
 0000:54D5       loc_54D5
 0000:54F9       loc_54F9
 0000:550C       unexpected(void)
 0000:5515       set_unexpected(void (*)(void))
 0000:554B       loc_554B
 0000:5560       ___call_unexpected
 0000:5590       loc_5590
 0000:55AF       __GetPolymorphicDTC(void *,uint)
 0000:55C3       loc_55C3
 0000:55FD       loc_55FD
 0000:5603       __GetPolymorphicDTCfar(void *,uint)
 0000:5617       loc_5617
 0000:5655       loc_5655
 0000:565B       __ExceptInit
 0000:56A9       xalloc::xalloc(string &,uint)
 0000:56CA       loc_56CA
 0000:56E8       loc_56E8
 0000:5728       xalloc::raise(void)
 0000:57E8       byte_57E8
 0000:5870       loc_5870
 0000:5872       loc_5872
 0000:5874       loc_5874
 0000:58D4       xmsg::xmsg(string &)
 0000:5903       loc_5903
 0000:5945       loc_5945
 0000:5955       loc_5955
 0000:599F       xmsg::xmsg(xmsg &)
 0000:59CE       loc_59CE
 0000:5A14       loc_5A14
 0000:5A24       loc_5A24
 0000:5A4A       xmsg::~xmsg(void)
 0000:5AA5       loc_5AA5
 0000:5ACD       xmsg::raise(void)
 0000:5B49       xmsg::operator=(xmsg &)
 0000:5B6C       loc_5B6C
 0000:5BDA       loc_5BDA
 0000:5BEA       loc_5BEA
 0000:5C02       byte_5C02
 0000:5C3A       byte_5C3A
 0000:5C44       aString
 0000:5C87       __RefDestructorCount(void)
 0000:5C8D       __RefExceptionList(void)
 0000:5C93       ___InitExceptBlocks
 0000:5D02       ___ExitExceptBlocks
 0000:5D16       ___JumpToCatch__
 0000:5D22       sub_5D22
 0000:5D36       loc_5D36
 0000:5D43       loc_5D43
 0000:5D47       sub_5D47
 0000:5D5F       loc_5D5F
 0000:5DB6       loc_5DB6
 0000:5DD4       loc_5DD4
 0000:5DD8       loc_5DD8
 0000:5DDC       loc_5DDC
 0000:5DDF       loc_5DDF
 0000:5DE5       sub_5DE5
 0000:5E00       loc_5E00
 0000:5E3D       loc_5E3D
 0000:5E3F       loc_5E3F
 0000:5E62       loc_5E62
 0000:5E8F       loc_5E8F
 0000:5E96       loc_5E96
 0000:5EA9       loc_5EA9
 0000:5EDB       loc_5EDB
 0000:5EDD       loc_5EDD
 0000:5EFD       loc_5EFD
 0000:5F27       loc_5F27
 0000:5F2C       loc_5F2C
 0000:5F33       loc_5F33
 0000:5F35       loc_5F35
 0000:5F3B       sub_5F3B
 0000:5F46       loc_5F46
 0000:5F59       loc_5F59
 0000:5F8D       loc_5F8D
 0000:5F94       loc_5F94
 0000:5FB8       loc_5FB8
 0000:5FCA       loc_5FCA
 0000:5FDE       loc_5FDE
 0000:5FE8       loc_5FE8
 0000:5FEB       loc_5FEB
 0000:6010       loc_6010
 0000:6017       loc_6017
 0000:6031       loc_6031
 0000:6059       loc_6059
 0000:6070       loc_6070
 0000:6075       loc_6075
 0000:60AC       loc_60AC
 0000:60AE       loc_60AE
 0000:60B4       sub_60B4
 0000:60E7       loc_60E7
 0000:60EC       loc_60EC
 0000:6105       loc_6105
 0000:610B       loc_610B
 0000:6139       loc_6139
 0000:6146       loc_6146
 0000:614A       sub_614A
 0000:6174       loc_6174
 0000:6206       loc_6206
 0000:6214       loc_6214
 0000:6219       loc_6219
 0000:622E       loc_622E
 0000:624B       loc_624B
 0000:624D       loc_624D
 0000:624F       loc_624F
 0000:6251       loc_6251
 0000:6257       sub_6257
 0000:6283       loc_6283
 0000:6299       loc_6299
 0000:62A4       loc_62A4
 0000:62AF       loc_62AF
 0000:62B9       loc_62B9
 0000:62C4       loc_62C4
 0000:62CB       loc_62CB
 0000:62DD       loc_62DD
 0000:62EF       loc_62EF
 0000:6303       loc_6303
 0000:6315       loc_6315
 0000:631B       loc_631B
 0000:632A       loc_632A
 0000:6339       loc_6339
 0000:634D       loc_634D
 0000:635F       loc_635F
 0000:6362       loc_6362
 0000:6372       loc_6372
 0000:637A       loc_637A
 0000:6382       loc_6382
 0000:6390       loc_6390
 0000:6395       loc_6395
 0000:63A3       loc_63A3
 0000:63A6       loc_63A6
 0000:63A9       loc_63A9
 0000:63B7       loc_63B7
 0000:63C0       loc_63C0
 0000:63C3       loc_63C3
 0000:63C8       loc_63C8
 0000:63DF       loc_63DF
 0000:63F6       loc_63F6
 0000:63FF       loc_63FF
 0000:6404       loc_6404
 0000:640D       loc_640D
 0000:6410       loc_6410
 0000:6413       loc_6413
 0000:6427       loc_6427
 0000:643B       loc_643B
 0000:643E       loc_643E
 0000:6449       loc_6449
 0000:6450       loc_6450
 0000:645C       loc_645C
 0000:6465       loc_6465
 0000:6476       loc_6476
 0000:6485       loc_6485
 0000:648B       loc_648B
 0000:6494       loc_6494
 0000:649D       loc_649D
 0000:64AB       loc_64AB
 0000:64B4       loc_64B4
 0000:64C3       loc_64C3
 0000:64D2       loc_64D2
 0000:64DE       loc_64DE
 0000:64EA       loc_64EA
 0000:64FC       loc_64FC
 0000:650E       loc_650E
 0000:6519       loc_6519
 0000:6524       loc_6524
 0000:6534       loc_6534
 0000:6544       loc_6544
 0000:654B       off_654B
 0000:657B       off_657B
 0000:65AB       sub_65AB
 0000:65BE       loc_65BE
 0000:65C0       loc_65C0
 0000:65E7       loc_65E7
 0000:65FD       loc_65FD
 0000:6608       loc_6608
 0000:6613       loc_6613
 0000:661E       loc_661E
 0000:6625       loc_6625
 0000:6633       loc_6633
 0000:6641       loc_6641
 0000:6653       loc_6653
 0000:6665       loc_6665
 0000:6670       loc_6670
 0000:6678       loc_6678
 0000:6686       loc_6686
 0000:6692       loc_6692
 0000:6695       loc_6695
 0000:66A3       loc_66A3
 0000:66B1       loc_66B1
 0000:66BF       loc_66BF
 0000:66C8       loc_66C8
 0000:66CB       loc_66CB
 0000:66CD       loc_66CD
 0000:66D9       loc_66D9
 0000:66E5       loc_66E5
 0000:66F3       loc_66F3
 0000:6701       loc_6701
 0000:670C       loc_670C
 0000:6717       loc_6717
 0000:6724       loc_6724
 0000:6731       loc_6731
 0000:6738       off_6738
 0000:6768       sub_6768
 0000:6794       loc_6794
 0000:679F       loc_679F
 0000:67AA       loc_67AA
 0000:67B9       loc_67B9
 0000:67C2       loc_67C2
 0000:67CB       loc_67CB
 0000:67D6       loc_67D6
 0000:67DF       loc_67DF
 0000:67E3       loc_67E3
 0000:67EB       loc_67EB
 0000:67F1       loc_67F1
 0000:67F3       loc_67F3
 0000:67FD       loc_67FD
 0000:6807       loc_6807
 0000:6812       loc_6812
 0000:681B       loc_681B
 0000:681D       loc_681D
 0000:6824       off_6824
 0000:688A       sub_688A
 0000:68F3       loc_68F3
 0000:6913       loc_6913
 0000:6916       loc_6916
 0000:6974       loc_6974
 0000:6976       loc_6976
 0000:6991       loc_6991
 0000:6AFD       byte_6AFD
 0000:6B07       loc_6B07
 0000:6B1C       loc_6B1C
 0000:6B67       loc_6B67
 0000:6BC3       _ThrowException(void *,void *,void *,void *,uint,uint,uint,uchar *)
 0000:6C1C       _ReThrowException(uint,uchar *)
 0000:6C57       loc_6C57
 0000:6CA3       loc_6CA3
 0000:6CAC       loc_6CAC
 0000:6CC6       sub_6CC6
 0000:6CCB       sub_6CCB
 0000:6CE6       loc_6CE6
 0000:6CF3       loc_6CF3
 0000:6D1E       loc_6D1E
 0000:6D2B       loc_6D2B
 0000:6D34       loc_6D34
 0000:6D42       loc_6D42
 0000:6D4F       loc_6D4F
 0000:6D52       loc_6D52
 0000:6D58       __Global_unwind
 0000:6D83       loc_6D83
 0000:6D9F       sub_6D9F
 0000:6DA4       _RaiseException
 0000:6DCD       loc_6DCD
 0000:6E83       loc_6E83
 0000:6ECC       loc_6ECC
 0000:6EFD       loc_6EFD
 0000:6F0B       loc_6F0B
 0000:6FDC       loc_6FDC
 0000:6FEA       loc_6FEA
 0000:6FF4       loc_6FF4
 0000:7001       loc_7001
 0000:702A       loc_702A
 0000:703B       loc_703B
 0000:7087       loc_7087
 0000:70A7       loc_70A7
 0000:70B1       loc_70B1
 0000:7191       loc_7191
 0000:7212       loc_7212
 0000:7217       loc_7217
 0000:724E       sub_724E
 0000:728C       byte_728C
 0000:7296       loc_7296
 0000:72A4       sub_72A4
 0000:731E       loc_731E
 0000:7326       loc_7326
 0000:737D       loc_737D
 0000:7385       loc_7385
 0000:738B       _CatchCleanup(void)
 0000:7408       sub_7408
 0000:7410       loc_7410
 0000:742D       loc_742D
 0000:7459       loc_7459
 0000:74B3       loc_74B3
 0000:74C8       loc_74C8
 0000:74CF       loc_74CF
 0000:74D5       sub_74D5
 0000:7546       loc_7546
 0000:754E       loc_754E
 0000:7552       loc_7552
 0000:7558       sub_7558
 0000:7587       loc_7587
 0000:7595       loc_7595
 0000:75A5       loc_75A5
 0000:75A7       loc_75A7
 0000:760D       loc_760D
 0000:7637       loc_7637
 0000:7640       loc_7640
 0000:7649       loc_7649
 0000:7651       loc_7651
 0000:7675       loc_7675
 0000:767C       loc_767C
 0000:76D8       loc_76D8
 0000:76DD       loc_76DD
 0000:76E8       loc_76E8
 0000:7738       loc_7738
 0000:7769       loc_7769
 0000:7770       loc_7770
 0000:7790       loc_7790
 0000:77B9       loc_77B9
 0000:77C2       loc_77C2
 0000:77D2       loc_77D2
 0000:7807       loc_7807
 0000:780F       loc_780F
 0000:7815       sub_7815
 0000:7870       loc_7870
 0000:78AB       loc_78AB
 0000:78B2       loc_78B2
 0000:78ED       loc_78ED
 0000:7902       loc_7902
 0000:791C       loc_791C
 0000:7928       loc_7928
 0000:793C       loc_793C
 0000:7975       loc_7975
 0000:79C0       loc_79C0
 0000:79C6       loc_79C6
 0000:79D7       loc_79D7
 0000:79DD       off_79DD
 0000:79E9       __Local_unwind
 0000:7A09       __Return_unwind
 0000:7A33       sub_7A33
 0000:7A4C       loc_7A4C
 0000:7A95       loc_7A95
 0000:7A9D       loc_7A9D
 0000:7AA1       loc_7AA1
 0000:7AB1       loc_7AB1
 0000:7ABF       __ExceptionHandler
 0000:7B4C       loc_7B4C
 0000:7B65       loc_7B65
 0000:7B6F       loc_7B6F
 0000:7B8A       loc_7B8A
 0000:7B8C       loc_7B8C
 0000:7BC4       loc_7BC4
 0000:7BC8       loc_7BC8
 0000:7BF4       loc_7BF4
 0000:7C01       loc_7C01
 0000:7C32       loc_7C32
 0000:7C39       loc_7C39
 0000:7C47       loc_7C47
 0000:7C51       loc_7C51
 0000:7C8B       loc_7C8B
 0000:7CC6       loc_7CC6
 0000:7D11       loc_7D11
 0000:7D2A       loc_7D2A
 0000:7D3F       loc_7D3F
 0000:7DA1       loc_7DA1
 0000:7DB5       loc_7DB5
 0000:7DD6       loc_7DD6
 0000:7DF1       loc_7DF1
 0000:7DF5       loc_7DF5
 0000:7DFD       loc_7DFD
 0000:7E23       loc_7E23
 0000:7E29       loc_7E29
 0000:7E32       loc_7E32
 0000:7E35       loc_7E35
 0000:7E3B       off_7E3B
 0000:7E95       sub_7E95
 0000:7EE9       loc_7EE9
 0000:7EF9       loc_7EF9
 0000:7F07       sub_7F07
 0000:7F14       loc_7F14
 0000:7F3C       loc_7F3C
 0000:7F77       loc_7F77
 0000:7F89       sub_7F89
 0000:7FA0       loc_7FA0
 0000:7FA7       loc_7FA7
 0000:7FC9       loc_7FC9
 0000:7FE2       loc_7FE2
 0000:800D       loc_800D
 0000:8045       loc_8045
 0000:805F       loc_805F
 0000:806F       loc_806F
 0000:8076       loc_8076
 0000:807C       loc_807C
 0000:8095       loc_8095
 0000:80CD       loc_80CD
 0000:80FC       loc_80FC
 0000:80FF       loc_80FF
 0000:8106       loc_8106
 0000:810C       loc_810C
 0000:8125       loc_8125
 0000:8160       loc_8160
 0000:817A       loc_817A
 0000:8184       loc_8184
 0000:81D0       loc_81D0
 0000:81F0       loc_81F0
 0000:8209       loc_8209
 0000:8231       loc_8231
 0000:824A       loc_824A
 0000:8251       loc_8251
 0000:8257       sub_8257
 0000:82B1       loc_82B1
 0000:830F       loc_830F
 0000:832E       loc_832E
 0000:8341       loc_8341
 0000:8359       sub_8359
 0000:83B9       loc_83B9
 0000:83C2       loc_83C2
 0000:83FF       loc_83FF
 0000:840B       sub_840B
 0000:8421       loc_8421
 0000:847B       loc_847B
 0000:8493       loc_8493
 0000:84A1       loc_84A1
 0000:84B3       loc_84B3
 0000:84C5       loc_84C5
 0000:84D1       loc_84D1
 0000:84E4       loc_84E4
 0000:850D       loc_850D
 0000:8532       loc_8532
 0000:8540       loc_8540
 0000:854E       loc_854E
 0000:8568       loc_8568
 0000:8576       loc_8576
 0000:859F       loc_859F
 0000:85A8       loc_85A8
 0000:85BA       loc_85BA
 0000:85DD       loc_85DD
 0000:8603       loc_8603
 0000:8621       loc_8621
 0000:8632       loc_8632
 0000:8662       loc_8662
 0000:8670       loc_8670
 0000:867D       loc_867D
 0000:86B0       loc_86B0
 0000:86B9       loc_86B9
 0000:86DF       loc_86DF
 0000:86E2       loc_86E2
 0000:86E5       loc_86E5
 0000:8719       loc_8719
 0000:8748       loc_8748
 0000:8768       loc_8768
 0000:8776       loc_8776
 0000:8785       loc_8785
 0000:87C2       loc_87C2
 0000:87D6       loc_87D6
 0000:87F5       loc_87F5
 0000:8803       loc_8803
 0000:8815       loc_8815
 0000:8817       loc_8817
 0000:8830       loc_8830
 0000:8832       loc_8832
 0000:8838       __CurrExcContext
 0000:887B       loc_887B
 0000:8880       loc_8880
 0000:8887       loc_8887
 0000:888D       __ThrowFileName(void)
 0000:889F       __ThrowLineNumber(void)
 0000:88AD       __ThrowExceptionName(void)
 0000:88BF       typeinfo::typeinfo(typeinfo &)
 0000:88E3       loc_88E3
 0000:8921       loc_8921
 0000:892D       typeinfo::operator=(typeinfo &)
 0000:893C       typeinfo::~typeinfo(void)
 0000:896D       loc_896D
 0000:8971       typeinfo::operator==(typeinfo &)
 0000:899C       loc_899C
 0000:899E       loc_899E
 0000:89A2       typeinfo::operator!=(typeinfo &)
 0000:89C4       typeinfo::before(typeinfo &)
 0000:89DD       loc_89DD
 0000:89EE       loc_89EE
 0000:8A33       loc_8A33
 0000:8A35       loc_8A35
 0000:8A3B       typeinfo::name(void)
 0000:8A55       __GetTypeInfo(void *,void *,void *,void *)
 0000:8A97       loc_8A97
 0000:8AD8       sub_8AD8
 0000:8B13       loc_8B13
 0000:8B1E       loc_8B1E
 0000:8B25       loc_8B25
 0000:8B37       loc_8B37
 0000:8B3D       loc_8B3D
 0000:8B58       loc_8B58
 0000:8B66       loc_8B66
 0000:8B80       loc_8B80
 0000:8B82       loc_8B82
 0000:8BCA       loc_8BCA
 0000:8BEF       loc_8BEF
 0000:8C36       loc_8C36
 0000:8C4D       loc_8C4D
 0000:8C6E       loc_8C6E
 0000:8CAA       loc_8CAA
 0000:8CC8       loc_8CC8
 0000:8CDD       loc_8CDD
 0000:8CE4       loc_8CE4
 0000:8CFD       loc_8CFD
 0000:8D16       loc_8D16
 0000:8D1C       loc_8D1C
 0000:8D22       __DynamicCast(void *,void *,void *,void *,int)
 0000:8D4D       loc_8D4D
 0000:8DA3       loc_8DA3
 0000:8DAC       loc_8DAC
 0000:8E05       loc_8E05
 0000:8E49       loc_8E49
 0000:8E51       loc_8E51
 0000:8E7D       loc_8E7D
 0000:8E81       loc_8E81
 0000:8EBB       aTypeinfo
 0000:8ED2       byte_8ED2
 0000:8F0E       unknown_libname_6
 0000:8F67       loc_8F67
 0000:8F69       loc_8F69
 0000:8F6B       loc_8F6B
 0000:8F6F       unknown_libname_7
 0000:8FEA       loc_8FEA
 0000:8FEC       loc_8FEC
 0000:8FEE       loc_8FEE
 0000:9038       loc_9038
 0000:903A       loc_903A
 0000:903C       loc_903C
 0000:9040       unknown_libname_8
 0000:91EA       loc_91EA
 0000:91EC       loc_91EC
 0000:91EE       loc_91EE
 0000:9238       loc_9238
 0000:923A       loc_923A
 0000:923C       loc_923C
 0000:9286       loc_9286
 0000:9288       loc_9288
 0000:928A       loc_928A
 0928:000E       _main
 0928:015E       loc_93DE
 0928:0186       loc_9406
 0928:0194       loc_9414
 0928:01A3       loc_9423
 0928:01EF       loc_946F
 0928:0208       loc_9488
 0928:0221       loc_94A1
 0928:024A       loc_94CA
 0928:0259       loc_94D9
 0928:025D       loc_94DD
 0928:0268       loc_94E8
 0928:026C       loc_94EC
 0928:026F       loc_94EF
 0928:0273       loc_94F3
 0928:02B3       loc_9533
 0928:02DB       loc_955B
 0928:02E6       loc_9566
 0928:0316       loc_9596
 0928:0338       loc_95B8
 0928:0340       loc_95C0
 0928:034B       loc_95CB
 0928:0353       loc_95D3
 0928:0381       loc_9601
 0928:0389       loc_9609
 0928:0391       loc_9611
 0928:03B2       loc_9632
 0928:03C4       loc_9644
 0928:03C9       loc_9649
 0928:03DE       loc_965E
 0928:03E6       loc_9666
 0928:03F6       loc_9676
 0928:03FE       loc_967E
 0928:0416       word_9696
 0928:0436       sub_96B6
 0928:05BB       sub_983B
 0928:06D5       sub_9955
 0928:0715       sub_9995
 0928:07A7       loc_9A27
 0928:07AB       sub_9A2B
 0928:083D       loc_9ABD
 0928:0891       loc_9B11
 0928:0898       loc_9B18
 0928:089D       loc_9B1D
 0928:089F       loc_9B1F
 0928:08A3       sub_9B23
 0928:0932       loc_9BB2
 0928:0944       loc_9BC4
 0928:0948       sub_9BC8
 0928:0A0A       sub_9C8A
 0928:0C9E       loc_9F1E
 0928:0D1F       loc_9F9F
 0928:0DCA       loc_A04A
 0928:0DD4       loc_A054
 0928:0E75       loc_A0F5
 0928:1165       loc_A3E5
 0928:1167       loc_A3E7
 0928:1177       loc_A3F7
 0928:11BB       loc_A43B
 0928:1235       loc_A4B5
 0928:124D       loc_A4CD
 0928:1278       loc_A4F8
 0928:1288       loc_A508
 0928:128C       loc_A50C
 0928:12CB       loc_A54B
 0928:12D0       loc_A550
 0928:131E       loc_A59E
 0928:132B       loc_A5AB
 0928:15AC       loc_A82C
 0928:15B7       loc_A837
 0928:15C4       loc_A844
 0928:15C8       loc_A848
 0928:15CA       loc_A84A
 0928:15E1       loc_A861
 0928:15E5       loc_A865
 0928:15E7       loc_A867
 0928:15FB       loc_A87B
 0928:1603       loc_A883
 0928:161D       loc_A89D
 0928:1637       loc_A8B7
 0928:163B       loc_A8BB
 0928:163D       loc_A8BD
 0928:1652       loc_A8D2
 0928:1656       loc_A8D6
 0928:1658       loc_A8D8
 0928:166E       loc_A8EE
 0928:1672       loc_A8F2
 0928:1674       loc_A8F4
 0928:168A       loc_A90A
 0928:168E       loc_A90E
 0928:1690       loc_A910
 0928:16A4       loc_A924
 0928:16AC       loc_A92C
 0928:16B3       loc_A933
 0928:16B8       loc_A938
 0928:16CB       loc_A94B
 0928:16D5       loc_A955
 0928:16D8       loc_A958
 0928:16F7       loc_A977
 0928:1709       loc_A989
 0928:1714       loc_A994
 0928:1717       loc_A997
 0928:171D       loc_A99D
 0928:1728       loc_A9A8
 0928:172B       loc_A9AB
 0928:1738       loc_A9B8
 0928:1742       loc_A9C2
 0928:1745       loc_A9C5
 0928:176B       loc_A9EB
 0928:1773       loc_A9F3
 0928:177B       loc_A9FB
 0928:1783       loc_AA03
 0928:17D7       loc_AA57
 0928:17DC       loc_AA5C
 0928:17E2       loc_AA62
 0928:17E8       loc_AA68
 0928:17EE       loc_AA6E
 0928:17F4       loc_AA74
 0928:17FA       loc_AA7A
 0928:1800       loc_AA80
 0928:1806       loc_AA86
 0928:180D       loc_AA8D
 0928:1814       loc_AA94
 0928:1829       loc_AAA9
 0928:182D       word_AAAD
 0928:18C5       sub_AB45
 0928:18E8       loc_AB68
 0928:18EE       loc_AB6E
 0928:18FA       loc_AB7A
 0928:18FE       loc_AB7E
 0928:1906       sub_AB86
 0928:191F       loc_AB9F
 0928:1922       loc_ABA2
 0928:194E       sub_ABCE
 0928:1A01       loc_AC81
 0928:1A0D       loc_AC8D
 0928:1A11       loc_AC91
 0928:1A1B       loc_AC9B
 0928:1BF7       loc_AE77
 0928:1C0C       loc_AE8C
 0928:1C22       loc_AEA2
 0928:1C38       loc_AEB8
 0928:1C4E       loc_AECE
 0928:1D07       loc_AF87
 0928:1D82       loc_B002
 0928:1DE9       loc_B069
 0928:1DEB       loc_B06B
 0928:1E19       loc_B099
 0928:1E29       loc_B0A9
 0928:1E2D       loc_B0AD
 0928:1E4C       loc_B0CC
 0928:1E58       loc_B0D8
 0928:1E5C       loc_B0DC
 0928:1E68       loc_B0E8
 0928:1E73       loc_B0F3
 0928:1E7D       loc_B0FD
 0928:1E83       loc_B103
 0928:1E9F       loc_B11F
 0928:1EA3       loc_B123
 0928:1EA9       loc_B129
 0928:1F04       loc_B184
 0928:1F0C       loc_B18C
 0928:1F19       loc_B199
 0928:1F32       loc_B1B2
 0928:1FB0       loc_B230
 0928:1FCD       loc_B24D
 0928:1FD7       loc_B257
 0928:1FDD       loc_B25D
 0928:1FF9       loc_B279
 0928:1FFD       loc_B27D
 0928:2003       loc_B283
 0928:206A       loc_B2EA
 0928:2074       loc_B2F4
 0928:207A       loc_B2FA
 0928:20C9       loc_B349
 0928:20D5       loc_B355
 0928:20E1       loc_B361
 0928:20ED       loc_B36D
 0928:20F9       loc_B379
 0928:2118       loc_B398
 0928:213B       loc_B3BB
 0928:2155       loc_B3D5
 0928:217C       loc_B3FC
 0928:2185       loc_B405
 0928:21B4       loc_B434
 0928:21CA       loc_B44A
 0928:21E0       loc_B460
 0928:21F6       loc_B476
 0928:21FE       loc_B47E
 0928:2202       loc_B482
 0928:2207       loc_B487
 0928:220C       loc_B48C
 0928:220F       loc_B48F
 0928:2223       loc_B4A3
 0928:2261       loc_B4E1
 0928:229F       loc_B51F
 0928:22DD       loc_B55D
 0928:22F2       loc_B572
 0928:22F6       word_B576
 0928:233E       sub_B5BE
 0928:23B8       loc_B638
 0928:23DD       loc_B65D
 0928:23E2       loc_B662
 0928:243B       loc_B6BB
 0928:2458       loc_B6D8
 0928:245C       sub_B6DC
 0928:2496       loc_B716
 0928:24A8       loc_B728
 0928:263E       loc_B8BE
 0928:2641       loc_B8C1
 0928:26AD       loc_B92D
 0928:2701       loc_B981
 0928:2755       loc_B9D5
 0928:2780       loc_BA00
 0928:27A9       loc_BA29
 0928:27F3       loc_BA73
 0928:2801       loc_BA81
 0928:2804       loc_BA84
 0928:2819       loc_BA99
 0928:2821       loc_BAA1
 0928:2863       loc_BAE3
 0928:29D4       loc_BC54
 0928:29E3       loc_BC63
 0928:29F1       loc_BC71
 0928:29FF       loc_BC7F
 0928:2A07       loc_BC87
 0928:2A0D       loc_BC8D
 0928:2A13       loc_BC93
 0928:2B78       loc_BDF8
 0928:2B82       loc_BE02
 0928:2B85       loc_BE05
 0928:2B93       loc_BE13
 0928:2B95       loc_BE15
 0928:2BC8       loc_BE48
 0928:2C14       loc_BE94
 0928:2C4C       loc_BECC
 0928:2CB0       loc_BF30
 0928:2CE8       loc_BF68
 0928:2D2E       loc_BFAE
 0928:2D32       loc_BFB2
 0928:2D67       loc_BFE7
 0928:2D77       loc_BFF7
 0928:2D7B       loc_BFFB
 0928:2DB4       loc_C034
 0928:2DF0       loc_C070
 0928:2E25       loc_C0A5
 0928:2E43       loc_C0C3
 0928:2E7C       loc_C0FC
 0928:2EA7       loc_C127
 0928:2FB4       loc_C234
 0928:2FB8       loc_C238
 0928:2FD9       loc_C259
 0928:2FED       loc_C26D
 0928:2FF8       loc_C278
 0928:3097       loc_C317
 0928:30AE       loc_C32E
 0928:30D7       loc_C357
 0928:30DF       loc_C35F
 0928:3112       loc_C392
 0928:3159       loc_C3D9
 0928:3163       loc_C3E3
 0928:3179       loc_C3F9
 0928:318C       loc_C40C
 0928:319F       loc_C41F
 0928:31A9       loc_C429
 0928:31E0       loc_C460
 0928:31EB       loc_C46B
 0928:31FE       loc_C47E
 0928:3211       loc_C491
 0928:328A       loc_C50A
 0928:3297       loc_C517
 0928:32C1       loc_C541
 0928:32E1       loc_C561
 0928:32E9       loc_C569
 0928:32F3       loc_C573
 0928:32F9       loc_C579
 0928:32FF       loc_C57F
 0928:330D       loc_C58D
 0928:3313       loc_C593
 0928:332A       loc_C5AA
 0928:334B       loc_C5CB
 0928:335C       loc_C5DC
 0928:335E       loc_C5DE
 0928:3378       loc_C5F8
 0928:338D       loc_C60D
 0928:3393       loc_C613
 0928:33B5       loc_C635
 0928:33D0       loc_C650
 0928:33F1       loc_C671
 0928:3413       loc_C693
 0928:342E       loc_C6AE
 0928:343F       loc_C6BF
 0928:3441       loc_C6C1
 0928:345B       loc_C6DB
 0928:3476       loc_C6F6
 0928:348D       loc_C70D
 0928:3497       loc_C717
 0928:34A4       loc_C724
 0928:34B9       loc_C739
 0928:34C3       loc_C743
 0928:34CE       loc_C74E
 0928:34DA       loc_C75A
 0928:34F4       loc_C774
 0928:350E       loc_C78E
 0928:3528       loc_C7A8
 0928:3542       loc_C7C2
 0928:3546       loc_C7C6
 0928:3548       loc_C7C8
 0928:3560       loc_C7E0
 0928:3568       loc_C7E8
 0928:35A4       loc_C824
 0928:35DC       loc_C85C
 0928:3615       loc_C895
 0928:364E       loc_C8CE
 0928:3656       loc_C8D6
 0928:3660       loc_C8E0
 0928:3663       loc_C8E3
 0928:3669       loc_C8E9
 0928:3671       loc_C8F1
 0928:36D9       loc_C959
 0928:36E1       loc_C961
 0928:36EB       loc_C96B
 0928:36EE       loc_C96E
 0928:36F4       loc_C974
 0928:372F       loc_C9AF
 0928:3732       loc_C9B2
 0928:3741       loc_C9C1
 0928:3750       loc_C9D0
 0928:3759       loc_C9D9
 0928:378E       loc_CA0E
 0928:3791       loc_CA11
 0928:379D       loc_CA1D
 0928:37A6       loc_CA26
 0928:37AF       loc_CA2F
 0928:37EC       loc_CA6C
 0928:3826       loc_CAA6
 0928:383B       loc_CABB
 0928:383F       word_CABF
 0928:38BF       off_CB3F
 0928:38C7       off_CB47
 0928:38CF       sub_CB4F
 0928:38F8       loc_CB78
 0928:38FA       sub_CB7A
 0928:391E       loc_CB9E
 0928:3961       loc_CBE1
 0928:3984       loc_CC04
 0928:398D       loc_CC0D
 0928:399D       loc_CC1D
 0928:39B3       loc_CC33
 0928:39C5       loc_CC45
 0928:3A0E       loc_CC8E
 0928:3A23       loc_CCA3
 0928:3A36       loc_CCB6
 0928:3A38       loc_CCB8
 0928:3A43       loc_CCC3
 0928:3A55       loc_CCD5
 0928:3A59       sub_CCD9
 0928:3AAF       sub_CD2F
 0928:3B4E       loc_CDCE
 0928:3B71       loc_CDF1
 0928:3B80       loc_CE00
 0928:3B84       loc_CE04
 0928:3B88       loc_CE08
 0928:3B8A       loc_CE0A
 0928:3B93       loc_CE13
 0928:3B9E       loc_CE1E
 0928:3BB7       word_CE37
 0928:3BC7       sub_CE47
 0928:3C98       loc_CF18
 0928:3C9D       loc_CF1D
 0928:3CD0       loc_CF50
 0928:3D3A       loc_CFBA
 0928:3D48       loc_CFC8
 0928:3D4D       loc_CFCD
 0928:3D6C       loc_CFEC
 0928:3D7C       loc_CFFC
 0928:3D80       loc_D000
 0928:3DA1       loc_D021
 0928:3DA3       loc_D023
 0928:3DC8       loc_D048
 0928:3EAD       loc_D12D
 0928:3EB6       loc_D136
 0928:3EBB       loc_D13B
 0928:3ED5       loc_D155
 0928:3ED8       loc_D158
 0928:3EDD       loc_D15D
 0928:3EF2       loc_D172
 0928:3EF6       word_D176
 0928:3F0E       sub_D18E
 0928:3FA4       loc_D224
 0928:3FA7       loc_D227
 0928:40C7       loc_D347
 0928:40D7       loc_D357
 0928:40DB       loc_D35B
 0928:410E       loc_D38E
 0928:4114       loc_D394
 0928:412B       loc_D3AB
 0928:4140       loc_D3C0
 0928:4146       loc_D3C6
 0928:417B       loc_D3FB
 0928:41C4       loc_D444
 0928:41CE       loc_D44E
 0928:41DC       loc_D45C
 0928:41E4       loc_D464
 0928:41EB       loc_D46B
 0928:41F1       loc_D471
 0928:41F6       loc_D476
 0928:421D       loc_D49D
 0928:4225       loc_D4A5
 0928:4242       loc_D4C2
 0928:4248       loc_D4C8
 0928:424B       loc_D4CB
 0928:4258       loc_D4D8
 0928:425E       loc_D4DE
 0928:426C       loc_D4EC
 0928:4291       loc_D511
 0928:429C       loc_D51C
 0928:429F       loc_D51F
 0928:42A5       loc_D525
 0928:42B0       loc_D530
 0928:42B3       loc_D533
 0928:42C8       loc_D548
 0928:42D1       loc_D551
 0928:42DA       loc_D55A
 0928:42E3       loc_D563
 0928:4339       loc_D5B9
 0928:4340       loc_D5C0
 0928:4355       loc_D5D5
 0928:4359       word_D5D9
 0928:4395       sub_D615
 0928:439A       loc_D61A
 0928:43AC       sub_D62C
 0928:43BD       loc_D63D
 0928:43C0       loc_D640
 0928:43CC       loc_D64C
 0928:43CF       loc_D64F
 0928:43DB       loc_D65B
 0928:43DD       loc_D65D
 0928:43E1       loc_D661
 0928:4411       loc_D691
 0928:4418       loc_D698
 0928:4491       loc_D711
 0928:4536       loc_D7B6
 0928:459F       loc_D81F
 0928:45AF       loc_D82F
 0928:45C8       loc_D848
 0928:4791       loc_DA11
 0928:47DD       loc_DA5D
 0928:4823       loc_DAA3
 0928:4827       sub_DAA7
 0928:4851       loc_DAD1
 0928:4853       loc_DAD3
 0928:4894       loc_DB14
 0928:4896       loc_DB16
 0928:48A6       loc_DB26
 0928:4917       loc_DB97
 0928:492C       loc_DBAC
 0928:4975       loc_DBF5
 0928:4979       sub_DBF9
 0928:4986       loc_DC06
 0928:4988       loc_DC08
 0928:49F6       loc_DC76
 0928:4A4A       sub_DCCA
 0928:4A5C       loc_DCDC
 0928:4A61       loc_DCE1
 0928:4A63       loc_DCE3
 0928:4A6D       loc_DCED
 0928:4AA8       loc_DD28
 0928:4AC5       loc_DD45
 0928:4ACF       sub_DD4F
 0928:4B01       loc_DD81
 0928:4B33       loc_DDB3
 0928:4B65       loc_DDE5
 0928:4B7F       loc_DDFF
 0928:4B97       loc_DE17
 0928:4BAF       loc_DE2F
 0928:4BBD       loc_DE3D
 0928:4BC0       loc_DE40
 0928:4BD0       loc_DE50
 0928:4BD8       loc_DE58
 0928:4C4E       loc_DECE
 0928:4CA2       loc_DF22
 0928:4CF4       loc_DF74
 0928:4D19       loc_DF99
 0928:4DBA       loc_E03A
 0928:4DCA       loc_E04A
 0928:4DCD       loc_E04D
 0928:4DEB       loc_E06B
 0928:4DFB       loc_E07B
 0928:4E53       loc_E0D3
 0928:4EA9       loc_E129
 0928:4ECB       loc_E14B
 0928:4F6D       loc_E1ED
 0928:4F86       loc_E206
 0928:4F8A       off_E20A
 0928:4F92       sub_E212
 0928:4FC5       loc_E245
 0928:4FC9       sub_E249
 0928:4FD2       loc_E252
 0928:5000       loc_E280
 0928:504C       loc_E2CC
 0928:504F       loc_E2CF
 0928:5050       loc_E2D0
 0928:505D       sub_E2DD
 0928:50FD       loc_E37D
 0928:5110       loc_E390
 0928:5218       loc_E498
 0928:5228       loc_E4A8
 0928:522C       loc_E4AC
 0928:5237       loc_E4B7
 0928:5240       loc_E4C0
 0928:5249       loc_E4C9
 0928:5252       loc_E4D2
 0928:525E       loc_E4DE
 0928:5262       loc_E4E2
 0928:5268       loc_E4E8
 0928:5274       loc_E4F4
 0928:5278       loc_E4F8
 0928:527E       loc_E4FE
 0928:528A       loc_E50A
 0928:528E       loc_E50E
 0928:5294       loc_E514
 0928:52A0       loc_E520
 0928:52A4       loc_E524
 0928:52AA       loc_E52A
 0928:52BA       loc_E53A
 0928:52C4       loc_E544
 0928:52D4       loc_E554
 0928:530C       loc_E58C
 0928:5323       word_E5A3
 0928:534B       sub_E5CB
 0928:5395       loc_E615
 0928:53DA       loc_E65A
 0928:5432       loc_E6B2
 0928:5436       loc_E6B6
 0928:5458       loc_E6D8
 0928:549B       loc_E71B
 0928:549F       loc_E71F
 0928:5506       loc_E786
 0928:5547       loc_E7C7
 0928:557B       loc_E7FB
 0928:5647       loc_E8C7
 0928:564B       loc_E8CB
 0928:5666       loc_E8E6
 0928:572C       loc_E9AC
 0928:5730       loc_E9B0
 0928:574E       loc_E9CE
 0928:5752       loc_E9D2
 0928:5779       loc_E9F9
 0928:57B9       loc_EA39
 0928:57BD       loc_EA3D
 0928:57C1       loc_EA41
 0928:57D7       loc_EA57
 0928:57DB       loc_EA5B
 0928:57FF       loc_EA7F
 0928:5802       sub_EA82
 0928:584B       loc_EACB
 0928:58AD       loc_EB2D
 0928:58F0       loc_EB70
 0928:58F4       loc_EB74
 0928:5938       loc_EBB8
 0928:596A       loc_EBEA
 0928:599A       loc_EC1A
 0928:599E       loc_EC1E
 0928:5A02       loc_EC82
 0928:5A06       loc_EC86
 0928:5A0A       loc_EC8A
 0928:5A33       sub_ECB3
 0928:5A98       loc_ED18
 0928:5AEF       loc_ED6F
 0928:5B46       loc_EDC6
 0928:5BB1       loc_EE31
 0928:5C1C       loc_EE9C
 0928:5C87       loc_EF07
 0928:5CF2       loc_EF72
 0928:5CF6       loc_EF76
 0928:5D79       loc_EFF9
 0928:5D7D       loc_EFFD
 0928:5DB6       loc_F036
 0928:5DBB       loc_F03B
 0928:5DC0       sub_F040
 0928:5DCC       loc_F04C
 0928:5E19       loc_F099
 0928:5E34       loc_F0B4
 0928:5E38       loc_F0B8
 0928:5E79       loc_F0F9
 0928:5E97       loc_F117
 0928:5E98       loc_F118
 0928:5E9D       loc_F11D
 0928:5EE3       loc_F163
 0928:5EEC       loc_F16C
 0928:5EF5       loc_F175
 0928:5F3A       loc_F1BA
 0928:5F53       loc_F1D3
 0928:5F57       loc_F1D7
 0928:5F58       loc_F1D8
 0928:5F60       loc_F1E0
 0928:5F67       loc_F1E7
 0928:5F6B       sub_F1EB
 0928:5FFE       loc_F27E
 0928:6026       loc_F2A6
 0928:604F       loc_F2CF
 0928:6058       loc_F2D8
 0928:60AA       loc_F32A
 0928:60AE       sub_F32E
 0928:60FE       loc_F37E
 0928:6246       loc_F4C6
 0928:627B       loc_F4FB
 0928:634C       sub_F5CC
 0928:6461       loc_F6E1
 0928:65E6       loc_F866
 0928:65F6       loc_F876
 0928:65FA       loc_F87A
 0928:6606       loc_F886
 0928:6613       loc_F893
 0928:6619       loc_F899
 0928:6625       loc_F8A5
 0928:6629       loc_F8A9
 0928:662F       loc_F8AF
 0928:6648       loc_F8C8
 0928:6681       loc_F901
 0928:67DA       loc_FA5A
 0928:67EA       loc_FA6A
 0928:67F5       loc_FA75
 0928:6958       loc_FBD8
 0928:6965       loc_FBE5
 0928:6970       loc_FBF0
 0928:6979       loc_FBF9
 0928:6982       loc_FC02
 0928:698B       loc_FC0B
 0928:6994       loc_FC14
 0928:69A1       loc_FC21
 0928:69A7       loc_FC27
 0928:69B3       loc_FC33
 0928:69B7       loc_FC37
 0928:69BD       loc_FC3D
 0928:69CA       loc_FC4A
 0928:69D0       loc_FC50
 0928:69DC       loc_FC5C
 0928:69E0       loc_FC60
 0928:69E6       loc_FC66
 0928:69F3       loc_FC73
 0928:69F9       loc_FC79
 0928:6A05       loc_FC85
 0928:6A09       loc_FC89
 0928:6A0F       loc_FC8F
 0928:6A24       loc_FCA4
 0928:6A28       word_FCA8
 0928:6A64       sub_FCE4
 0928:6B8A       loc_FE0A
 0928:6B8E       loc_FE0E
 0928:6B9E       loc_FE1E
 0928:6BA1       loc_FE21
 0928:6BC5       sub_FE45
 1001:0000       aPkBgiDeviceDri
 1001:0258       byte_10268
 1001:026A       loc_1027A
 1001:0342       a640X350EgaMono
 1001:04E0       word_104F0
 1001:04E2       byte_104F2
 1001:04E3       word_104F3
 1001:058E       sub_1059E
 1001:0590       loc_105A0
 1001:0639       sub_10649
 1001:064B       sub_1065B
 1001:065A       loc_1066A
 1001:0664       locret_10674
 1001:0665       sub_10675
 1001:067B       sub_1068B
 1001:068E       loc_1069E
 1001:06A0       sub_106B0
 1001:06B4       locret_106C4
 1001:06CA       sub_106DA
 1001:0704       loc_10714
 1001:0751       loc_10761
 1001:075A       loc_1076A
 1001:0762       loc_10772
 1001:0773       loc_10783
 1001:077D       loc_1078D
 1001:0785       loc_10795
 1001:0795       loc_107A5
 1001:079E       loc_107AE
 1001:07A6       loc_107B6
 1001:07AE       loc_107BE
 1001:07B5       loc_107C5
 1001:07CE       loc_107DE
 1001:07D7       loc_107E7
 1001:07DF       loc_107EF
 1001:07F0       loc_10800
 1001:07FA       loc_1080A
 1001:0801       loc_10811
 1001:0811       loc_10821
 1001:081A       loc_1082A
 1001:0822       loc_10832
 1001:082A       loc_1083A
 1001:082F       loc_1083F
 1001:0F8B       sub_10F9B
 1001:0F9A       loc_10FAA
 1001:0FA9       loc_10FB9
 1001:0FBA       loc_10FCA
 1001:0FD9       loc_10FE9
 1001:0FE5       loc_10FF5
 1001:0FE8       sub_10FF8
 1001:0FFA       loc_1100A
 1001:1022       loc_11032
 1001:107C       loc_1108C
 1001:1097       loc_110A7
 1001:10A4       loc_110B4
 1001:10D5       loc_110E5
 1001:10E1       loc_110F1
 1001:10E6       loc_110F6
 1001:10EB       loc_110FB
 1001:10EE       loc_110FE
 1001:10F3       sub_11103
 1001:10FD       loc_1110D
 1001:1110       sub_11120
 1001:111A       loc_1112A
 1001:111D       sub_1112D
 1001:1136       locret_11146
 1001:1137       sub_11147
 1001:1153       locret_11163
 1001:1154       sub_11164
 1001:115D       loc_1116D
 1001:117A       loc_1118A
 1001:118F       loc_1119F
 1001:11A4       sub_111B4
 1001:11AA       loc_111BA
 1001:11D7       loc_111E7
 1001:11EE       loc_111FE
 1001:11F6       sub_11206
 1001:11FD       loc_1120D
 1001:120F       loc_1121F
 1001:1220       loc_11230
 1001:1226       loc_11236
 1001:1229       loc_11239
 1001:122D       sub_1123D
 1001:1240       loc_11250
 1001:1247       loc_11257
 1001:1251       loc_11261
 1001:126E       loc_1127E
 1001:1274       sub_11284
 1001:129A       sub_112AA
 1001:12D5       loc_112E5
 1001:12E7       loc_112F7
 1001:12ED       loc_112FD
 1001:12F3       loc_11303
 1001:1308       loc_11318
 1001:1310       loc_11320
 1001:131D       loc_1132D
 1001:1336       loc_11346
 1001:1340       loc_11350
 1001:1366       loc_11376
 1001:1385       loc_11395
 1001:1388       loc_11398
 1001:1390       sub_113A0
 1001:13A5       loc_113B5
 1001:13C4       loc_113D4
 1001:13C7       loc_113D7
 1001:13CF       locret_113DF
 1001:13D0       sub_113E0
 1001:13E3       sub_113F3
 1001:13FF       locret_1140F
 1001:1400       sub_11410
 1001:140A       loc_1141A
 1001:143E       loc_1144E
 1001:1456       loc_11466
 1001:1468       loc_11478
 1001:1483       loc_11493
 1001:1490       locret_114A0
 1001:1491       sub_114A1
 1001:14B2       loc_114C2
 1001:14BB       loc_114CB
 1001:14BE       loc_114CE
 1001:14CA       sub_114DA
 1001:14D6       loc_114E6
 1001:14D9       loc_114E9
 1001:14DC       sub_114EC
 1001:14FC       loc_1150C
 1001:1523       sub_11533
 1001:1540       loc_11550
 1001:1559       loc_11569
 1001:1560       sub_11570
 1001:156F       sub_1157F
 1001:1573       sub_11583
 1001:1575       loc_11585
 1001:1586       loc_11596
 1001:1590       sub_115A0
 1001:15A3       loc_115B3
 1001:15AC       loc_115BC
 1001:15AE       loc_115BE
 1001:15B1       locret_115C1
 115C:0002       sub_115C2
 115C:00A3       loc_11663
 115C:00A8       sub_11668
 115C:00BD       loc_1167D
 115C:00CF       loc_1168F
 115C:00D2       loc_11692
 115C:00ED       loc_116AD
 115C:00F0       loc_116B0
 115C:00FD       loc_116BD
 115C:00FF       loc_116BF
 115C:0114       loc_116D4
 115C:0185       loc_11745
 115C:018E       loc_1174E
 115C:0194       loc_11754
 115C:0199       loc_11759
 115C:01A8       loc_11768
 115C:01B6       loc_11776
 115C:01D9       loc_11799
 115C:01E5       loc_117A5
 115C:01E7       loc_117A7
 115C:01EB       sub_117AB
 115C:0221       sub_117E1
 115C:0241       sub_11801
 115C:025D       loc_1181D
 115C:0262       loc_11822
 115C:0271       loc_11831
 115C:0276       loc_11836
 115C:028F       sub_1184F
 115C:02AC       sub_1186C
 115C:02D3       loc_11893
 115C:02DB       loc_1189B
 115C:030D       loc_118CD
 115C:0430       loc_119F0
 115C:049E       loc_11A5E
 115C:04A0       loc_11A60
 115C:0557       loc_11B17
 115C:055B       loc_11B1B
 115C:055F       loc_11B1F
 115C:05A9       loc_11B69
 115C:05AD       sub_11B6D
 115C:0610       loc_11BD0
 115C:061C       loc_11BDC
 115C:062F       loc_11BEF
 115C:0649       loc_11C09
 115C:065D       loc_11C1D
 115C:0671       loc_11C31
 115C:0678       loc_11C38
 115C:0680       loc_11C40
 115C:06D3       loc_11C93
 115C:06D8       loc_11C98
 115C:06EE       loc_11CAE
 115C:0703       loc_11CC3
 115C:0712       loc_11CD2
 115C:0719       loc_11CD9
 115C:071F       loc_11CDF
 115C:0743       loc_11D03
 115C:0749       loc_11D09
 115C:0750       sub_11D10
 115C:075A       loc_11D1A
 115C:0811       loc_11DD1
 115C:0818       loc_11DD8
 115C:0820       loc_11DE0
 115C:0828       loc_11DE8
 115C:08AD       loc_11E6D
 115C:08B4       loc_11E74
 115C:08BC       loc_11E7C
 115C:08C4       loc_11E84
 115C:0949       loc_11F09
 115C:0950       loc_11F10
 115C:0958       loc_11F18
 115C:0960       loc_11F20
 115C:0983       loc_11F43
 115C:098F       loc_11F4F
 115C:09B1       loc_11F71
 115C:09CC       loc_11F8C
 115C:0A14       loc_11FD4
 115C:0A1C       loc_11FDC
 115C:0A2D       loc_11FED
 115C:0A45       loc_12005
 115C:0A8A       loc_1204A
 115C:0A91       loc_12051
 115C:0A97       loc_12057
 115C:0AC9       loc_12089
 115C:0AD0       loc_12090
 115C:0AD6       loc_12096
 115C:0B08       loc_120C8
 115C:0B0F       loc_120CF
 115C:0B15       loc_120D5
 115C:0B1F       loc_120DF
 115C:0B41       loc_12101
 115C:0B5C       loc_1211C
 115C:0B80       loc_12140
 115C:0B84       sub_12144
 115C:0BB5       loc_12175
 115C:0BBC       loc_1217C
 115C:0BE2       loc_121A2
 115C:0BF2       loc_121B2
 115C:0C3F       loc_121FF
 115C:0C45       sub_12205
 115C:0CC2       loc_12282
 115C:0CD4       loc_12294
 1229:000C       sub_1229C
 1229:0041       loc_122D1
 1229:006C       sub_122FC
 1229:00A1       loc_12331
 1229:00DA       sub_1236A
 1229:00FB       loc_1238B
 1229:0106       loc_12396
 1229:0323       loc_125B3
 1229:0326       sub_125B6
 1229:0376       loc_12606
 1229:0404       sub_12694
 1229:04B0       loc_12740
 1229:04E4       sub_12774
 1229:0511       sub_127A1
 1229:051F       loc_127AF
 1229:0521       loc_127B1
 1229:0539       loc_127C9
 1229:053B       loc_127CB
 1229:0581       loc_12811
 1229:0583       loc_12813
 1229:05A6       loc_12836
 1229:05B6       loc_12846
 1229:05E5       loc_12875
 1229:05E7       loc_12877
 1229:060A       loc_1289A
 1229:061A       loc_128AA
 1229:0628       loc_128B8
 1229:062C       sub_128BC
 1229:0637       loc_128C7
 1229:063E       loc_128CE
 1229:0640       loc_128D0
 1229:065A       loc_128EA
 1229:0693       loc_12923
 1229:06AE       loc_1293E
 1229:06B5       loc_12945
 1229:06BC       loc_1294C
 1229:06C8       sub_12958
 1229:06E5       loc_12975
 1229:06E7       loc_12977
 1229:06EC       loc_1297C
 1229:06F3       loc_12983
 1229:06F5       loc_12985
 1229:070F       loc_1299F
 1229:0748       loc_129D8
 1229:0763       loc_129F3
 1229:076A       loc_129FA
 1229:0771       loc_12A01
 1229:077D       sub_12A0D
 1229:07C1       loc_12A51
 1229:0813       loc_12AA3
 1229:081A       loc_12AAA
 1229:09AF       loc_12C3F
 1229:09CA       loc_12C5A
 1229:0A54       loc_12CE4
 1229:0A58       loc_12CE8
 1229:0A87       loc_12D17
 1229:0A8B       sub_12D1B
 1229:0A93       loc_12D23
 1229:0A95       loc_12D25
 1229:0AD9       loc_12D69
 1229:0ADD       loc_12D6D
 1229:0AF5       loc_12D85
 1229:0B1E       loc_12DAE
 1229:0B22       sub_12DB2
 1229:0B81       loc_12E11
 1229:0BA8       loc_12E38
 1229:0C03       loc_12E93
 1229:0C80       loc_12F10
 1229:0CDE       loc_12F6E
 1229:0CFC       loc_12F8C
 1229:0D08       loc_12F98
 1229:0D11       loc_12FA1
 1229:0D53       loc_12FE3
 1229:0D88       sub_13018
 1229:0D8F       loc_1301F
 1229:0DA6       loc_13036
 1229:0DB4       loc_13044
 1229:0DF0       loc_13080
 1229:0ED2       loc_13162
 1229:10AE       loc_1333E
 1229:10CB       loc_1335B
 1229:10CE       sub_1335E
 1229:111B       loc_133AB
 1229:137D       loc_1360D
 1229:14E3       loc_13773
 1229:1502       sub_13792
 1229:1584       loc_13814
 1229:15F8       sub_13888
 1229:162F       loc_138BF
 1229:1661       loc_138F1
 1229:16C4       loc_13954
 1229:1702       sub_13992
 1229:173C       loc_139CC
 1229:1787       loc_13A17
 1229:1789       loc_13A19
 1229:17A8       loc_13A38
 1229:17C0       loc_13A50
 1229:17D5       loc_13A65
 1229:17ED       loc_13A7D
 1229:180B       loc_13A9B
 1229:1818       loc_13AA8
 1229:18DE       loc_13B6E
 1229:18E1       loc_13B71
 1229:190B       loc_13B9B
 1229:1917       loc_13BA7
 1229:1921       loc_13BB1
 1229:198D       loc_13C1D
 13C2:0001       sub_13C21
 13C2:003A       sub_13C5A
 13C2:0070       loc_13C90
 13C2:0072       sub_13C92
 13C2:00AC       sub_13CCC
 13C2:00D5       sub_13CF5
 13C2:0113       sub_13D33
 13C2:012F       sub_13D4F
 13C2:0139       loc_13D59
 13C2:0157       loc_13D77
 13C2:0191       loc_13DB1
 13C2:01A0       loc_13DC0
 13C2:01BC       loc_13DDC
 13C2:01D3       loc_13DF3
 13C2:01D9       loc_13DF9
 13C2:01F6       loc_13E16
 13C2:020C       loc_13E2C
 13C2:023D       loc_13E5D
 13C2:024C       loc_13E6C
 13C2:025B       loc_13E7B
 13C2:026A       loc_13E8A
 13C2:0287       loc_13EA7
 13C2:0293       loc_13EB3
 13C2:029F       loc_13EBF
 13C2:02B2       loc_13ED2
 13C2:02D1       loc_13EF1
 13C2:02DA       loc_13EFA
 13C2:02DD       loc_13EFD
 13C2:02EC       loc_13F0C
 13F1:0000       sub_13F10
 13F1:000F       loc_13F1F
 13F1:0031       sub_13F41
 13F1:003D       loc_13F4D
 13F1:0050       sub_13F60
 13F1:0071       sub_13F81
 13F1:0078       loc_13F88
 13F1:008C       loc_13F9C
 13F1:008F       loc_13F9F
 13F1:0094       sub_13FA4
 13F1:00AD       sub_13FBD
 13F1:00BF       loc_13FCF
 13F1:00C6       loc_13FD6
 13F1:00C9       loc_13FD9
 13F1:00DB       sub_13FEB
 13F1:00EB       sub_13FFB
 13F1:00F8       sub_14008
 13F1:010D       loc_1401D
 13F1:012A       loc_1403A
 13F1:0132       loc_14042
 13F1:0138       loc_14048
 13F1:013D       sub_1404D
 13F1:0168       loc_14078
 13F1:0178       sub_14088
 13F1:01BA       loc_140CA
 13F1:01C1       loc_140D1
 13F1:01CC       loc_140DC
 13F1:01D7       loc_140E7
 13F1:01E2       loc_140F2
 13F1:01F5       loc_14105
 13F1:0208       loc_14118
 13F1:0213       loc_14123
 13F1:021E       loc_1412E
 13F1:0228       loc_14138
 13F1:0232       loc_14142
 13F1:023C       loc_1414C
 13F1:0246       loc_14156
 13F1:0250       loc_14160
 13F1:025A       loc_1416A
 13F1:0262       loc_14172
 13F1:026C       loc_1417C
 13F1:0276       loc_14186
 13F1:0280       loc_14190
 13F1:028A       loc_1419A
 13F1:0294       loc_141A4
 13F1:02A6       loc_141B6
 13F1:02D3       loc_141E3
 13F1:02E1       loc_141F1
 13F1:02E7       off_141F7
 13F1:030D       sub_1421D
 13F1:032A       sub_1423A
 13F1:033A       loc_1424A
 13F1:033E       loc_1424E
 13F1:034E       sub_1425E
 13F1:036E       loc_1427E
 13F1:037E       loc_1428E
 13F1:0380       sub_14290
 13F1:03A7       loc_142B7
 13F1:03B8       sub_142C8
 13F1:03EC       loc_142FC
 13F1:03F4       sub_14304
 13F1:041A       loc_1432A
 13F1:0429       loc_14339
 13F1:043A       loc_1434A
 13F1:043F       loc_1434F
 13F1:0443       loc_14353
 13F1:0495       loc_143A5
 13F1:0496       loc_143A6
 13F1:049C       loc_143AC
 13F1:049F       loc_143AF
 13F1:04A2       loc_143B2
 13F1:04A8       sub_143B8
 13F1:04E2       loc_143F2
 13F1:04E7       loc_143F7
 13F1:0502       loc_14412
 13F1:0512       loc_14422
 13F1:0518       loc_14428
 13F1:051E       loc_1442E
 13F1:0532       loc_14442
 13F1:0537       loc_14447
 13F1:0553       loc_14463
 13F1:058C       loc_1449C
 13F1:05B5       loc_144C5
 13F1:05BD       loc_144CD
 13F1:05C1       loc_144D1
 13F1:0642       loc_14552
 13F1:069C       loc_145AC
 13F1:069F       sub_145AF
 13F1:072D       sub_1463D
 13F1:0797       loc_146A7
 13F1:079B       loc_146AB
 13F1:079E       loc_146AE
 13F1:07A5       sub_146B5
 13F1:07F2       loc_14702
 13F1:082B       loc_1473B
 13F1:0852       loc_14762
 13F1:087C       loc_1478C
 13F1:0880       loc_14790
 13F1:0899       loc_147A9
 13F1:089C       loc_147AC
 13F1:08A1       sub_147B1
 13F1:08BA       loc_147CA
 13F1:090F       loc_1481F
 13F1:0979       sub_14889
 13F1:09BA       loc_148CA
 13F1:09FB       loc_1490B
 13F1:09FE       loc_1490E
 13F1:0A10       loc_14920
 13F1:0A40       loc_14950
 13F1:0A58       loc_14968
 13F1:0A9A       loc_149AA
 13F1:0AAD       loc_149BD
 13F1:0AC8       loc_149D8
 13F1:0B11       loc_14A21
 13F1:0B17       loc_14A27
 13F1:0B5C       loc_14A6C
 13F1:0B66       loc_14A76
 13F1:0B9B       loc_14AAB
 13F1:0BCF       loc_14ADF
 13F1:0BF6       loc_14B06
 13F1:0C00       loc_14B10
 13F1:0C11       loc_14B21
 13F1:0C1E       loc_14B2E
 13F1:0C53       loc_14B63
 13F1:0C54       loc_14B64
 13F1:0C69       loc_14B79
 13F1:0CB4       loc_14BC4
 13F1:0CDA       loc_14BEA
 13F1:0CE4       loc_14BF4
 13F1:0CF5       loc_14C05
 13F1:0D02       loc_14C12
 13F1:0D22       loc_14C32
 13F1:0D23       loc_14C33
 13F1:0D38       loc_14C48
 13F1:0D5C       loc_14C6C
 13F1:0D84       loc_14C94
 13F1:0DA7       loc_14CB7
 13F1:0DE4       loc_14CF4
 13F1:0E04       loc_14D14
 13F1:0E0A       sub_14D1A
 13F1:0E3B       loc_14D4B
 13F1:0E3E       sub_14D4E
 13F1:0E59       loc_14D69
 13F1:0E9E       loc_14DAE
 13F1:0EA8       loc_14DB8
 13F1:0ED7       loc_14DE7
 13F1:0EDB       loc_14DEB
 13F1:0EE0       loc_14DF0
 13F1:0F00       sub_14E10
 13F1:0F37       loc_14E47
 13F1:0F3F       loc_14E4F
 13F1:0F72       loc_14E82
 13F1:0FEC       loc_14EFC
 13F1:0FF8       loc_14F08
 13F1:1007       sub_14F17
 13F1:10A9       loc_14FB9
 13F1:115D       sub_1506D
 13F1:1178       loc_15088
 13F1:1180       loc_15090
 13F1:1199       loc_150A9
 13F1:119E       sub_150AE
 13F1:1211       sub_15121
 13F1:122F       loc_1513F
 13F1:1240       loc_15150
 13F1:125E       sub_1516E
 13F1:127B       loc_1518B
 13F1:12AE       loc_151BE
 13F1:12B3       sub_151C3
 13F1:138D       sub_1529D
 13F1:13AF       loc_152BF
 13F1:13B9       loc_152C9
 13F1:13C4       loc_152D4
 13F1:13E9       sub_152F9
 13F1:140C       loc_1531C
 13F1:141A       loc_1532A
 13F1:1422       loc_15332
 13F1:142C       loc_1533C
 13F1:144A       loc_1535A
 13F1:144D       loc_1535D
 13F1:1464       loc_15374
 13F1:1488       loc_15398
 13F1:14C3       loc_153D3
 13F1:14CE       loc_153DE
 13F1:1520       loc_15430
 13F1:1522       loc_15432
 13F1:1526       sub_15436
 13F1:1561       loc_15471
 13F1:15A8       loc_154B8
 13F1:1617       loc_15527
 13F1:161A       sub_1552A
 13F1:163D       loc_1554D
 13F1:1645       loc_15555
 13F1:1656       loc_15566
 13F1:165B       sub_1556B
 13F1:1679       loc_15589
 13F1:1680       loc_15590
 13F1:168A       loc_1559A
 13F1:1693       loc_155A3
 13F1:169C       loc_155AC
 13F1:16AF       loc_155BF
 13F1:16FB       loc_1560B
 13F1:1706       loc_15616
 13F1:173C       loc_1564C
 13F1:1745       loc_15655
 13F1:1767       loc_15677
 13F1:17A3       loc_156B3
 13F1:17CA       loc_156DA
 13F1:17DE       loc_156EE
 13F1:17E2       loc_156F2
 13F1:17F1       loc_15701
 13F1:17F7       loc_15707
 13F1:17FE       loc_1570E
 13F1:1859       seg_15769
 13F1:185B       sub_1576B
 13F1:185E       sub_1576E
 13F1:1872       loc_15782
 13F1:189C       locret_157AC
 13F1:18B4       sub_157C4
 13F1:18B9       sub_157C9
 13F1:18D3       loc_157E3
 13F1:18E9       loc_157F9
 13F1:18FD       sub_1580D
 13F1:191D       loc_1582D
 13F1:1929       sub_15839
 13F1:194F       loc_1585F
 13F1:195F       sub_1586F
 13F1:1994       loc_158A4
 13F1:19DD       loc_158ED
 13F1:19E7       sub_158F7
 13F1:1A0A       sub_1591A
 13F1:1A3D       sub_1594D
 13F1:1A5A       sub_1596A
 13F1:1A6F       loc_1597F
 13F1:1A96       loc_159A6
 13F1:1AA2       loc_159B2
 13F1:1AA6       loc_159B6
 13F1:1AAB       sub_159BB
 13F1:1AE0       loc_159F0
 13F1:1AFD       loc_15A0D
 13F1:1B0F       loc_15A1F
 13F1:1B17       loc_15A27
 13F1:1B1C       sub_15A2C
 13F1:1B37       sub_15A47
 13F1:1B4A       loc_15A5A
 13F1:1B59       sub_15A69
 13F1:1B7E       sub_15A8E
 13F1:1B95       sub_15AA5
 13F1:1BB2       sub_15AC2
 13F1:1BCF       sub_15ADF
 13F1:1C32       sub_15B42
 13F1:1C71       loc_15B81
 13F1:1C77       loc_15B87
 13F1:1C96       sub_15BA6
 13F1:1D03       sub_15C13
 13F1:1D5C       sub_15C6C
 13F1:1D7D       sub_15C8D
 13F1:1D98       sub_15CA8
 13F1:1DB3       sub_15CC3
 13F1:1DD0       sub_15CE0
 13F1:1DF1       sub_15D01
 13F1:1E0D       sub_15D1D
 13F1:1E52       sub_15D62
 13F1:1E71       sub_15D81
 13F1:1E8C       sub_15D9C
 13F1:1EFA       sub_15E0A
 13F1:1F2A       sub_15E3A
 13F1:1F60       sub_15E70
 13F1:1FA5       loc_15EB5
 13F1:1FB1       sub_15EC1
 13F1:1FD7       sub_15EE7
 13F1:2004       sub_15F14
 13F1:2046       sub_15F56
 13F1:2066       sub_15F76
 13F1:2086       loc_15F96
 13F1:208C       loc_15F9C
 13F1:20A3       sub_15FB3
 13F1:20F0       sub_16000
 13F1:2125       locret_16035
 13F1:2126       sub_16036
 13F1:2139       loc_16049
 13F1:213E       loc_1604E
 13F1:2142       loc_16052
 13F1:214F       loc_1605F
 13F1:215E       locret_1606E
 13F1:215F       loc_1606F
 13F1:2171       loc_16081
 13F1:218C       locret_1609C
 13F1:218D       sub_1609D
 13F1:21A9       loc_160B9
 13F1:21AB       sub_160BB
 13F1:21DF       loc_160EF
 13F1:21E4       locret_160F4
 13F1:21E5       loc_160F5
 13F1:21EB       sub_160FB
 13F1:21F9       locret_16109
 13F1:21FA       sub_1610A
 13F1:2217       loc_16127
 13F1:2219       loc_16129
 13F1:221B       sub_1612B
 13F1:221E       sub_1612E
 13F1:222B       loc_1613B
 13F1:2239       loc_16149
 13F1:223E       loc_1614E
 13F1:2241       loc_16151
 13F1:224D       loc_1615D
 13F1:2250       sub_16160
 13F1:2271       loc_16181
 13F1:227D       loc_1618D
 13F1:2618       sub_16528
 13F1:262B       locret_1653B
 13F1:2654       sub_16564
 13F1:266C       locret_1657C
 13F1:266D       sub_1657D
 13F1:2679       locret_16589
 13F1:26F5       sub_16605
 13F1:26FC       sub_1660C
 13F1:2708       locret_16618
 13F1:2709       loc_16619
 13F1:2714       loc_16624
 13F1:271C       loc_1662C
 13F1:2733       loc_16643
 13F1:2740       sub_16650
 13F1:28AD       sub_167BD
 13F1:28CB       loc_167DB
 13F1:28DB       locret_167EB
 13F1:28DC       loc_167EC
 13F1:2901       sub_16811
 13F1:2921       loc_16831
 13F1:2922       locret_16832
 13F1:2923       loc_16833
 13F1:295C       loc_1686C
 13F1:29B3       loc_168C3
 13F1:29B4       loc_168C4
 13F1:29D0       loc_168E0
 13F1:29DB       sub_168EB
 13F1:2A00       sub_16910
 13F1:2A1F       sub_1692F
 13F1:2A24       loc_16934
 13F1:2A2A       loc_1693A
 13F1:3034       loc_16F44
 13F1:3041       loc_16F51
 13F1:304B       loc_16F5B
 13F1:3057       loc_16F67
 13F1:3064       loc_16F74
 13F1:30A4       loc_16FB4
 13F1:30B0       loc_16FC0
 13F1:30C6       loc_16FD6
 13F1:30EE       loc_16FFE
 13F1:30F1       loc_17001
 13F1:3106       loc_17016
 13F1:3128       loc_17038
 13F1:312B       loc_1703B
 13F1:3135       loc_17045
 13F1:313E       sub_1704E
 13F1:3163       sub_17073
 13F1:3185       sub_17095
 13F1:31A7       sub_170B7
 13F1:31DC       sub_170EC
 13F1:31EE       loc_170FE
 13F1:31FF       sub_1710F
 13F1:3216       locret_17126
 13F1:3217       loc_17127
 13F1:3222       loc_17132
 13F1:3230       sub_17140
 13F1:323F       loc_1714F
 13F1:3245       loc_17155
 13F1:3251       loc_17161
 13F1:3257       sub_17167
 13F1:3268       locret_17178
 13F1:3269       sub_17179
 13F1:3276       locret_17186
 13F1:3277       sub_17187
 13F1:327E       sub_1718E
 13F1:3293       sub_171A3
 13F1:32A5       loc_171B5
 13F1:32A9       locret_171B9
 13F1:32AA       sub_171BA
 13F1:33EC       sub_172FC
 13F1:3402       loc_17312
 13F1:342C       loc_1733C
 13F1:343C       sub_1734C
 13F1:344F       loc_1735F
 13F1:3467       loc_17377
 13F1:347C       loc_1738C
 13F1:3486       loc_17396
 13F1:348D       loc_1739D
 13F1:34A8       loc_173B8
 13F1:34B4       loc_173C4
 13F1:34B7       loc_173C7
 13F1:34CD       loc_173DD
 13F1:34D9       loc_173E9
 13F1:34DC       loc_173EC
 13F1:34F2       loc_17402
 13F1:3505       loc_17415
 13F1:351B       loc_1742B
 13F1:352C       loc_1743C
 13F1:3533       loc_17443
 13F1:3536       sub_17446
 13F1:3542       loc_17452
 13F1:354A       loc_1745A
 13F1:3556       loc_17466
 13F1:355F       loc_1746F
 13F1:3562       sub_17472
 13F1:3577       sub_17487
 13F1:3588       sub_17498
 13F1:3599       sub_174A9
 13F1:35A8       loc_174B8
 13F1:35B4       loc_174C4
 13F1:35C0       loc_174D0
 13F1:35CC       loc_174DC
 13F1:35F0       loc_17500
 13F1:35F2       sub_17502
 13F1:35F9       loc_17509
 13F1:35FF       locret_1750F
 13F1:3600       sub_17510
 13F1:361A       loc_1752A
 13F1:361C       sub_1752C
 13F1:3621       loc_17531
 13F1:3627       locret_17537
 17B2:0000       loc_17B20
 17B2:0009       loc_17B29
 17B2:001F       loc_17B3F
 17B2:002F       loc_17B4F
 17B2:0036       loc_17B56
 17B2:003F       e087_Trap
 17B2:0082       loc_17BA2
 17B2:0092       loc_17BB2
 17B2:009D       loc_17BBD
 17B2:00A4       loc_17BC4
 17B2:00BE       loc_17BDE
 17B2:00DD       loc_17BFD
 17B2:00E7       loc_17C07
 17B2:00ED       loc_17C0D
 17B2:00F4       loc_17C14
 17B2:00F6       loc_17C16
 17B2:0115       loc_17C35
 17B2:0127       loc_17C47
 17B2:013F       loc_17C5F
 17B2:0143       loc_17C63
 17B2:0150       locret_17C70
 17B2:0151       loc_17C71
 17B2:0155       loc_17C75
 17B2:0164       sub_17C84
 17B2:0177       loc_17C97
 17B2:0179       loc_17C99
 17B2:017D       locret_17C9D
 17B2:017E       loc_17C9E
 17B2:0185       loc_17CA5
 17B2:01B1       sub_17CD1
 17B2:01C6       loc_17CE6
 17B2:01F0       tbyte_17D10
 17B2:01FA       tbyte_17D1A
 17B2:0204       flt_17D24
 17B2:0208       flt_17D28
 17B2:0210       flt_17D30
 17B2:0214       tbyte_17D34
 17B2:021E       flt_17D3E
 17B2:022C       loc_17D4C
 17B2:024D       loc_17D6D
 17B2:024F       loc_17D6F
 17B2:025F       loc_17D7F
 17B2:0261       loc_17D81
 17B2:026D       loc_17D8D
 17B2:0270       loc_17D90
 17B2:02A7       loc_17DC7
 17B2:02B2       loc_17DD2
 17B2:02B5       loc_17DD5
 17B2:02C4       loc_17DE4
 17B2:02E1       loc_17E01
 17B2:02E6       loc_17E06
 17B2:02F4       loc_17E14
 17B2:0314       loc_17E34
 17B2:0317       loc_17E37
 17B2:0334       loc_17E54
 17B2:0343       loc_17E63
 17B2:034E       loc_17E6E
 17B2:0367       loc_17E87
 17B2:0378       loc_17E98
 17B2:0380       loc_17EA0
 17B2:0391       loc_17EB1
 17B2:03AF       loc_17ECF
 17B2:03B4       loc_17ED4
 17B2:03C3       loc_17EE3
 17B2:03CC       loc_17EEC
 17B2:03D1       loc_17EF1
 17B2:03F2       loc_17F12
 17B2:03F5       loc_17F15
 17B2:040F       loc_17F2F
 17B2:0421       loc_17F41
 17B2:0432       loc_17F52
 17B2:0438       loc_17F58
 17B2:043D       loc_17F5D
 17B2:044D       loc_17F6D
 17B2:0453       loc_17F73
 17B2:0458       loc_17F78
 17B2:0477       loc_17F97
 17B2:04C4       loc_17FE4
 17B2:04D1       loc_17FF1
 17B2:04DC       loc_17FFC
 17B2:04E0       e087_Entry
 17B2:04ED       loc_1800D
 17B2:051D       loc_1803D
 17B2:0527       loc_18047
 17B2:052C       loc_1804C
 17B2:0557       loc_18077
 17B2:057A       loc_1809A
 17B2:057F       loc_1809F
 17B2:058C       loc_180AC
 17B2:05A3       e087_Shortcut
 180E:0000       string::string(string &)
 180E:002F       loc_1810F
 180E:0049       loc_18129
 180E:006F       byte_1814F
 180E:00E9       string::string(char *)
 180E:0118       loc_181F8
 180E:014E       loc_1822E
 180E:0150       loc_18230
 180E:017C       loc_1825C
 180E:018C       loc_1826C
 180E:01B2       byte_18292
 180E:01BC       aTstringref
 180E:01EF       aStringLengther
 180E:0217       byte_182F7
 180E:0259       byte_18339
 180E:0305       string::~string(void)
 180E:036A       loc_1844A
 180E:037E       loc_1845E
 180E:038C       string::assert_element(uint)
 180E:03B9       loc_18499
 180E:03BB       loc_1849B
 180E:043C       loc_1851C
 180E:044A       string::assert_index(uint)
 180E:0477       loc_18557
 180E:0479       loc_18559
 180E:04FA       loc_185DA
 180E:0508       TSubString::assert_element(uint)
 180E:0532       loc_18612
 180E:0534       loc_18614
 180E:05B5       loc_18695
 180E:05C3       TStringRef::TStringRef(char *,uint,char *,uint,uint)
 180E:05E7       loc_186C7
 180E:0641       loc_18721
 180E:0690       loc_18770
 180E:06AC       TStringRef::~TStringRef(void)
 180E:06FF       loc_187DF
 180E:070D       TStringRef::reserve(uint)
 180E:076D       loc_1884D
 180E:077B       TStringRef::check_freeboard(void)
 180E:07D5       loc_188B5
 180E:07E3       TStringRef::grow_to(uint)
 180E:0837       loc_18917
 180E:0845       TStringRef::round_capacity(uint)
 180E:0884       TStringRef::splice(uint,uint,char *,uint)
 180E:08CC       loc_189AC
 180E:090E       loc_189EE
 180E:0930       loc_18A10
 180E:093C       loc_18A1C
 180E:094D       loc_18A2D
 180E:096A       loc_18A4A
 180E:099C       loc_18A7C
 180E:09C7       loc_18AA7
 180E:09E0       loc_18AC0
 180E:0A12       loc_18AF2
 180E:0A35       loc_18B15
 180E:0A43       string::set_case_sensitive(int)
 180E:0A60       string::set_paranoid_check(int)
 180E:0A7D       string::skip_whitespace(int)
 180E:0A9A       string::initial_capacity(uint)
 180E:0AB7       string::resize_increment(uint)
 180E:0AD8       loc_18BB8
 180E:0AE1       string::max_waste(uint)
 180E:0AFE       byte_18BDE
 180E:0B24       aStringLength_0
 180E:0B8E       byte_18C6E
 180E:0C00       byte_18CE0
 180E:0C26       aStringOutofran
 18D3:0000       word_18D30
 18D3:0002       word_18D32
 18D3:0004       off_18D34
 18D3:0006       off_18D36
 18D3:0008       off_18D38
 18D3:000C       off_18D3C
 18D3:0020       byte_18D50
 18D3:0022       byte_18D52
 18D3:0027       word_18D57
 18D3:0029       word_18D59
 18D3:002D       word_18D5D
 18D3:0047       tbyte_18D77
 18D3:0051       word_18D81
 18D3:0053       aRror
 18D3:005A       dword_18D8A
 18D3:005E       dword_18D8E
 18D3:0062       dword_18D92
 18D3:0066       dword_18D96
 18D3:006A       argc
 18D3:006C       argv
 18D3:006E       word_18D9E
 18D3:0070       envp
 18D3:0074       word_18DA4
 18D3:0076       word_18DA6
 18D3:0078       dword_18DA8
 18D3:007C       word_18DAC
 18D3:007E       word_18DAE
 18D3:0083       byte_18DB3
 18D3:0084       word_18DB4
 18D3:0086       word_18DB6
 18D3:0088       word_18DB8
 18D3:008A       word_18DBA
 18D3:008C       word_18DBC
 18D3:008E       word_18DBE
 18D3:0090       a2_77
 18D3:0096       off_18DC6
 18D3:009A       word_18DCA
 18D3:009F       byte_18DCF
 18D3:00AE       byte_18DDE
 18D3:00B2       unk_18DE2
 18D3:0106       off_18E36
 18D3:019A       unk_18ECA
 18D3:0300       word_19030
 18D3:0302       word_19032
 18D3:0310       word_19040
 18D3:0312       word_19042
 18D3:0314       word_19044
 18D3:0316       word_19046
 18D3:0356       off_19086
 18D3:039A       unk_190CA
 18D3:0416       word_19146
 18D3:0418       word_19148
 18D3:0422       word_19152
 18D3:0424       word_19154
 18D3:042E       word_1915E
 18D3:0430       word_19160
 18D3:0435       word_19165
 18D3:043A       word_1916A
 18D3:043C       word_1916C
 18D3:0466       off_19196
 18D3:04AE       byte_191DE
 18D3:04AF       unk_191DF
 18D3:04D2       word_19202
 18D3:04D4       seg_19204
 18D3:04D6       word_19206
 18D3:04D8       seg_19208
 18D3:04DA       word_1920A
 18D3:04DC       seg_1920C
 18D3:04DE       word_1920E
 18D3:04E0       seg_19210
 18D3:04E2       byte_19212
 18D3:04E3       word_19213
 18D3:04E5       byte_19215
 18D3:0656       off_19386
 18D3:0662       unk_19392
 18D3:0686       off_193B6
 18D3:069A       unk_193CA
 18D3:06D6       off_19406
 18D3:070A       unk_1943A
 18D3:07B2       off_194E2
 18D3:07BE       unk_194EE
 18D3:07E2       off_19512
 18D3:0806       unk_19536
 18D3:0872       off_195A2
 18D3:08AA       unk_195DA
 18D3:0952       unk_19682
 18D3:0AF0       word_19820
 18D3:0AF2       byte_19822
 18D3:0C30       aF9Xyz
 18D3:0C37       aF1Config
 18D3:0C41       aF2Convert
 18D3:0C4C       aF3Datload
 18D3:0C57       aF4Glsload
 18D3:0C62       aF5Start
 18D3:0C6B       aF10Exit
 18D3:0C74       aOk_3
 18D3:0C77       aCancel
 18D3:0C7E       aLoad_cfg
 18D3:0C88       aSave_cfg
 18D3:0C92       asc_199C2
 18D3:0C94       asc_199C4
 18D3:0C96       asc_199C6
 18D3:0C98       asc_199C8
 18D3:0C9A       asc_199CA
 18D3:0C9C       asc_199CC
 18D3:0C9E       aS
 18D3:0CA1       aS_0
 18D3:0CA4       asc_199D4
 18D3:0CA7       asc_199D7
 18D3:0CAA       aY_8
 18D3:0CAD       aY_9
 18D3:0CB0       aZ_4
 18D3:0CB3       aZ_5
 18D3:0CB6       a1_0
 18D3:0CB8       a9_0
 18D3:0CBA       aProtect_open
 18D3:0CC7       aGateDelay
 18D3:0CD2       aLaserPump
 18D3:0CDD       aWorkPtr
 18D3:0CE6       aConstant
 18D3:0CEF       unk_19A1F
 18D3:0CF2       word_19A22
 18D3:0CF4       word_19A24
 18D3:0CF6       word_19A26
 18D3:0CF8       unk_19A28
 18D3:0CFA       word_19A2A
 18D3:0CFC       unk_19A2C
 18D3:0CFD       unk_19A2D
 18D3:0CFE       word_19A2E
 18D3:0D00       unk_19A30
 18D3:0D01       unk_19A31
 18D3:0D02       word_19A32
 18D3:0D04       unk_19A34
 18D3:0D05       unk_19A35
 18D3:0D06       byte_19A36
 18D3:0D07       word_19A37
 18D3:0D09       byte_19A39
 18D3:0D0A       byte_19A3A
 18D3:0D0B       word_19A3B
 18D3:0D0D       word_19A3D
 18D3:0D0F       word_19A3F
 18D3:0D11       word_19A41
 18D3:0D13       word_19A43
 18D3:0D15       word_19A45
 18D3:0D17       word_19A47
 18D3:0D19       byte_19A49
 18D3:0D1A       unk_19A4A
 18D3:0D1D       unk_19A4D
 18D3:0D1E       unk_19A4E
 18D3:0D1F       a_bft_1
 18D3:0D25       unk_19A55
 18D3:0D2A       byte_19A5A
 18D3:0D2B       word_19A5B
 18D3:0D2D       word_19A5D
 18D3:0D2F       byte_19A5F
 18D3:0D30       byte_19A60
 18D3:0D31       word_19A61
 18D3:0D33       word_19A63
 18D3:0D37       unk_19A67
 18D3:0D38       unk_19A68
 18D3:0D39       unk_19A69
 18D3:0D3A       aCancel_0
 18D3:0D41       aDataSave
 18D3:0D4B       aDataLoad_1
 18D3:0D55       aF9Xyz_0
 18D3:0D5C       a0Center
 18D3:0D66       aUp
 18D3:0D69       asc_19A99
 18D3:0D6C       aDn
 18D3:0D6F       asc_19A9F
 18D3:0D72       asc_19AA2
 18D3:0D74       asc_19AA4
 18D3:0D76       asc_19AA6
 18D3:0D78       asc_19AA8
 18D3:0D7A       asc_19AAA
 18D3:0D7C       asc_19AAC
 18D3:0D7E       asc_19AAE
 18D3:0D80       asc_19AB0
 18D3:0D82       aSort
 18D3:0D88       unk_19AB8
 18D3:0D89       unk_19AB9
 18D3:0D8A       unk_19ABA
 18D3:0D8B       unk_19ABB
 18D3:0D8C       aXMirror
 18D3:0D95       aDimensions
 18D3:0DA0       aCCenter
 18D3:0DAA       aInvert
 18D3:0DB5       aPgupUp
 18D3:0DBD       aPgdnDown
 18D3:0DC7       aCancel_1
 18D3:0DCE       aOk
 18D3:0DD1       aCancel_2
 18D3:0DD8       unk_19B08
 18D3:0DD9       aUp_0
 18D3:0DDC       aDn_0
 18D3:0DDF       aOk_0
 18D3:0DE3       aCancel_3
 18D3:0DEB       asc_19B1B
 18D3:0DED       asc_19B1D
 18D3:0DEF       aBeginning
 18D3:0DF9       aPointNumber
 18D3:0E06       aContinuation
 18D3:0E13       aSavedInCmos
 18D3:0E21       aEndSensors
 18D3:0E2D       aDrawingCheck
 18D3:0E3B       aStop
 18D3:0E40       aCoord_rebootCo
 18D3:0E5A       aIgnore
 18D3:0E61       aOk_1
 18D3:0E64       aNo
 18D3:0E67       aNx
 18D3:0E6A       aClose
 18D3:0E70       aOff
 18D3:0E74       a0_5mmLayers
 18D3:0E81       aKDz
 18D3:0E86       asc_19BB6
 18D3:0E88       asc_19BB8
 18D3:0E8A       asc_19BBA
 18D3:0E8C       asc_19BBC
 18D3:0E8E       aSortTime
 18D3:0E98       aCancel_4
 18D3:0E9F       asc_19BCF
 18D3:0EA1       asc_19BD1
 18D3:0EA3       aOk_2
 18D3:0EA6       aFrom0
 18D3:0EAD       aFromCentre
 18D3:0EB9       unk_19BE9
 18D3:0EBA       unk_19BEA
 18D3:0EBB       asc_19BEB
 18D3:0EBD       asc_19BED
 18D3:0EBF       asc_19BEF
 18D3:0EC1       asc_19BF1
 18D3:0EC3       asc_19BF3
 18D3:0EC5       asc_19BF5
 18D3:0EC7       aK8
 18D3:0ECA       dbl_19BFA
 18D3:0ED2       aGraphicsError
 18D3:0EE1       unk_19C11
 18D3:0EE2       format
 18D3:0EF1       aAllocationErro
 18D3:0F02       aDataLoad
 18D3:0F0C       aFileNotFound
 18D3:0F1B       aPleaseWait
 18D3:0F27       unk_19C57
 18D3:0F28       aNotFlinttabFil
 18D3:0F3A       aBufferOverflow
 18D3:0F4A       byte_19C7A
 18D3:0F4B       aExit?
 18D3:0F51       aNextPix
 18D3:0F5D       aConfiguration
 18D3:0F6B       aReset
 18D3:0F71       aFlashNmb
 18D3:0F7B       aServiceDate
 18D3:0F88       a_cfg
 18D3:0F8D       aStep
 18D3:0F92       asc_19CC2
 18D3:0F94       aY
 18D3:0F96       aZ
 18D3:0F98       aLas_puls
 18D3:0FA1       aPeriod
 18D3:0FA8       aMs
 18D3:0FAB       aGate
 18D3:0FB0       aUs
 18D3:0FB3       aStep_0
 18D3:0FB8       aFreq_
 18D3:0FBE       aHz
 18D3:0FC1       aDemo
 18D3:0FC6       aDtMs
 18D3:0FD0       aShMs
 18D3:0FDA       src
 18D3:0FE6       asc_19D16
 18D3:0FE8       asc_19D18
 18D3:0FEA       aPleaseWait_0
 18D3:0FF6       flt_19D26
 18D3:0FFA       aKpuError
 18D3:1004       unk_19D34
 18D3:1005       aAreYouSure?
 18D3:1013       aFlint9_cfg
 18D3:101E       aFlint1_cfg
 18D3:1029       aGlassNSizeIsTr
 18D3:1040       aAreYouSure?_0
 18D3:104E       byte_19D7E
 18D3:104F       aDrive
 18D3:1056       aDx
 18D3:105A       aDy
 18D3:105E       aDz
 18D3:1062       a0_11_5
 18D3:106A       a01_5
 18D3:1070       aMm
 18D3:1073       flt_19DA3
 18D3:1077       a_bft
 18D3:107D       a_cft
 18D3:1083       a_asc
 18D3:1089       a_bmp
 18D3:108F       byte_19DBF
 18D3:1090       aDiskError
 18D3:109B       byte_19DCB
 18D3:109C       a_bft_0
 18D3:10A1       a_cft_0
 18D3:10A6       a_asc_0
 18D3:10AB       a_bmp_0
 18D3:10B0       byte_19DE0
 18D3:10B1       flt_19DE1
 18D3:10B5       dbl_19DE5
 18D3:10BD       byte_19DED
 18D3:10BE       aDataConvert
 18D3:10CB       aFile
 18D3:10D1       aGlass
 18D3:10D8       aN
 18D3:10DB       aXsize
 18D3:10E2       aYsize
 18D3:10E9       aZsize
 18D3:10F0       aDt
 18D3:10F4       aDl
 18D3:10F8       aDr
 18D3:10FC       aDb
 18D3:1100       aY_0
 18D3:1102       asc_19E32
 18D3:1104       asc_19E34
 18D3:1106       aY_1
 18D3:1108       asc_19E38
 18D3:110A       aY_2
 18D3:110C       aZ_0
 18D3:110E       a0
 18D3:1110       byte_19E40
 18D3:1111       aEnterName
 18D3:111C       s2
 18D3:111D       aEnterFileName
 18D3:112D       aOverwrite?
 18D3:1138       aPleaseWaitPres
 18D3:114F       aDataLoad_0
 18D3:1159       aFileNotFound_0
 18D3:1168       aPleaseWait_1
 18D3:1174       unk_19EA4
 18D3:1175       aBufferOverfl_0
 18D3:1185       unk_19EB5
 18D3:1186       unk_19EB6
 18D3:1187       aNotBWBmpFile
 18D3:1198       aNotFlinttabF_0
 18D3:11AA       aBufferOverfl_1
 18D3:11BA       byte_19EEA
 18D3:11BB       byte_19EEB
 18D3:11BC       dbl_19EEC
 18D3:11C4       flt_19EF4
 18D3:11C8       dbl_19EF8
 18D3:11D0       unk_19F00
 18D3:11D1       dbl_19F01
 18D3:11D9       byte_19F09
 18D3:11DA       dbl_19F0A
 18D3:11E2       dbl_19F12
 18D3:11EA       unk_19F1A
 18D3:11EB       dbl_19F1B
 18D3:11F3       dbl_19F23
 18D3:11FB       dbl_19F2B
 18D3:1203       flt_19F33
 18D3:1207       aOutOfRange
 18D3:1214       aPleaseWait_2
 18D3:1220       unk_19F50
 18D3:1221       aGlassLoad
 18D3:122C       a123
 18D3:1236       a10
 18D3:1239       a456
 18D3:1243       a789
 18D3:1250       aGlassSelect
 18D3:125D       aGlassN
 18D3:1268       aStart
 18D3:126E       aAfterNoise
 18D3:127B       aFinishedPoint
 18D3:128C       aStartNumberNma
 18D3:12A0       aDataOutOfRange
 18D3:12B2       aDataOutOfGlass
 18D3:12C4       aInstituteForLa
 18D3:12E5       aAndEngineering
 18D3:12F5       a1
 18D3:12F7       a9
 18D3:12F9       aDr_check
 18D3:1302       aFile_0
 18D3:1308       aNmax
 18D3:130E       aNlast
 18D3:1315       aGlass_0
 18D3:131C       aN_0
 18D3:131F       asc_1A04F
 18D3:1322       aY_3
 18D3:1325       aZ_1
 18D3:1328       aDemo_0
 18D3:132D       aReiterations
 18D3:133B       a0_0
 18D3:133D       aY_4
 18D3:133F       asc_1A06F
 18D3:1341       asc_1A071
 18D3:1343       aY_5
 18D3:1345       asc_1A075
 18D3:1347       aY_6
 18D3:1349       aZ_2
 18D3:134B       aSorting
 18D3:1353       aK1Dz
 18D3:135A       aK2Dz
 18D3:1361       aPixels
 18D3:1369       asc_1A099
 18D3:136B       aTime
 18D3:1372       asc_1A0A2
 18D3:1374       asc_1A0A4
 18D3:1376       aDimensionsModi
 18D3:138E       aK
 18D3:1394       aKx
 18D3:139B       aKy
 18D3:13A2       aKz
 18D3:13A9       aPixels_0
 18D3:13B2       aForStopPressEs
 18D3:13C6       unk_1A0F6
 18D3:13C7       aKpuEndSens_err
 18D3:13DA       unk_1A10A
 18D3:13DB       aCheckLaser_Ret
 18D3:13F2       aForStopPress_0
 18D3:1406       unk_1A136
 18D3:1407       unk_1A137
 18D3:1408       aOk_TableEnd
 18D3:1418       aFileOpenError
 18D3:1428       mode
 18D3:142B       aWb
 18D3:1430       aFlint9_cfg_0
 18D3:143B       aFlint1_cfg_0
 18D3:1446       path
 18D3:1450       aRb
 18D3:1453       aFlash_dat_0
 18D3:145D       aWb_0
 18D3:1460       asc_1A190
 18D3:1464       asc_1A194
 18D3:1469       aR
 18D3:146B       aFlinttab
 18D3:1474       flt_1A1A4
 18D3:1478       aFlint_gls
 18D3:1482       aR_0
 18D3:1489       aY_10
 18D3:148C       aZ_6
 18D3:148F       aR_1
 18D3:1491       dbl_1A1C1
 18D3:1499       aW
 18D3:149B       aAmbientLightCo
 18D3:14B1       aRed0_039216Gre
 18D3:14DD       aNamedObject
 18D3:14ED       asc_1A21D
 18D3:14F0       aTriMeshVertice
 18D3:1505       aFaces0VertexLi
 18D3:1521       aVertex
 18D3:1529       asc_1A259
 18D3:1530       aY_7
 18D3:1539       aZ_3
 18D3:1542       asc_1A272
 18D3:154B       aW_0
 18D3:154D       aFlinttab_0
 18D3:1556       aNglass
 18D3:155E       aXsize_0
 18D3:1565       aYsize_0
 18D3:156C       aZsize_0
 18D3:1573       flt_1A2A3
 18D3:1577       aWb_1
 18D3:157A       aRb_0
 18D3:157D       aRb_1
 18D3:1580       s
 18D3:158C       word_1A2BC
 18D3:158E       seg_1A2BE
 18D3:1590       byte_1A2C0
 18D3:15A8       byte_1A2D8
 18D3:15F9       word_1A329
 18D3:15FB       word_1A32B
 18D3:1729       word_1A459
 18D3:172B       seg_1A45B
 18D3:172D       word_1A45D
 18D3:172F       seg_1A45F
 18D3:1731       byte_1A461
 18D3:173F       word_1A46F
 18D3:1745       byte_1A475
 18D3:1750       word_1A480
 18D3:1752       word_1A482
 18D3:1754       word_1A484
 18D3:175A       byte_1A48A
 18D3:175E       word_1A48E
 18D3:1760       word_1A490
 18D3:176A       word_1A49A
 18D3:176C       word_1A49C
 18D3:176E       word_1A49E
 18D3:1789       byte_1A4B9
 18D3:178A       word_1A4BA
 18D3:178C       word_1A4BC
 18D3:178E       word_1A4BE
 18D3:1790       word_1A4C0
 18D3:1792       word_1A4C2
 18D3:1794       word_1A4C4
 18D3:1796       word_1A4C6
 18D3:1798       word_1A4C8
 18D3:179A       axret
 18D3:179C       word_1A4CC
 18D3:179E       word_1A4CE
 18D3:17A0       word_1A4D0
 18D3:17A2       word_1A4D2
 18D3:17A4       word_1A4D4
 18D3:17A6       word_1A4D6
 18D3:17A8       word_1A4D8
 18D3:17AA       word_1A4DA
 18D3:17AC       dword_1A4DC
 18D3:17B0       byte_1A4E0
 18D3:17B1       byte_1A4E1
 18D3:17B2       byte_1A4E2
 18D3:17B3       byte_1A4E3
 18D3:17B4       byte_1A4E4
 18D3:17B5       word_1A4E5
 18D3:17B7       word_1A4E7
 18D3:17B9       word_1A4E9
 18D3:17BB       byte_1A4EB
 18D3:17BD       word_1A4ED
 18D3:17BF       word_1A4EF
 18D3:17C1       word_1A4F1
 18D3:17C3       word_1A4F3
 18D3:17C5       word_1A4F5
 18D3:17C7       word_1A4F7
 18D3:17C9       word_1A4F9
 18D3:17CB       word_1A4FB
 18D3:17CD       word_1A4FD
 18D3:17CF       word_1A4FF
 18D3:17D1       word_1A501
 18D3:17DB       byte_1A50B
 18D3:17DC       byte_1A50C
 18D3:17EC       word_1A51C
 18D3:17EE       word_1A51E
 18D3:17F0       word_1A520
 18D3:17F2       word_1A522
 18D3:17F4       word_1A524
 18D3:17F6       word_1A526
 18D3:1902       byte_1A632
 18D3:1903       word_1A633
 18D3:1905       aNoError
 18D3:1BEE       word_1A91E
 18D3:1BF0       byte_1A920
 18D3:1BF1       byte_1A921
 18D3:1BF2       byte_1A922
 18D3:1BF3       dword_1A923
 18D3:1BF7       byte_1A927
 18D3:1BF8       byte_1A928
 18D3:1BFA       word_1A92A
 18D3:1C00       word_1A930
 18D3:1C06       dbl_1A936
 18D3:1C3C       flt_1A96C
 18D3:1C40       flt_1A970
 18D3:1C44       flt_1A974
 18D3:1C48       flt_1A978
 18D3:1C4C       dbl_1A97C
 18D3:1C54       flt_1A984
 18D3:1C74       flt_1A9A4
 18D3:1C78       dbl_1A9A8
 18D3:1C80       tbyte_1A9B0
 18D3:1C8A       tbyte_1A9BA
 18D3:1C94       tbyte_1A9C4
 18D3:1C9E       tbyte_1A9CE
 18D3:1CA8       tbyte_1A9D8
 18D3:1CB2       tbyte_1A9E2
 18D3:1CBC       tbyte_1A9EC
 18D3:1CC6       tbyte_1A9F6
 18D3:1CD0       flt_1AA00
 18D3:1CFE       aDomain
 18D3:1D05       aDenormal
 18D3:1D0E       aDivideBy0
 18D3:1D1A       aOverflow
 18D3:1D23       aUnderflow
 18D3:1D2D       aPartialLossOfP
 18D3:1D47       aStackFault
 18D3:1D53       aFloatingPointE
 18D3:1D6E       word_1AA9E
 18D3:1D70       byte_1AAA0
 18D3:1D71       byte_1AAA1
 18D3:1D72       byte_1AAA2
 18D3:1D73       byte_1AAA3
 18D3:1D74       byte_1AAA4
 18D3:1D75       byte_1AAA5
 18D3:1D76       byte_1AAA6
 18D3:1D77       byte_1AAA7
 18D3:1D78       byte_1AAA8
 18D3:1D79       byte_1AAA9
 18D3:1D7A       byte_1AAAA
 18D3:1D7B       word_1AAAB
 18D3:1D7D       word_1AAAD
 18D3:1D80       word_1AAB0
 18D3:1D82       aCompaq
 18D3:1D8A       byte_1AABA
 18D3:1D8B       byte_1AABB
 18D3:1D8C       word_1AABC
 18D3:1D8E       word_1AABE
 18D3:1D90       byte_1AAC0
 18D3:1D92       word_1AAC2
 18D3:1D94       word_1AAC4
 18D3:1D96       word_1AAC6
 18D3:1DA0       word_1AAD0
 18D3:1DA2       word_1AAD2
 18D3:1DA4       byte_1AAD4
 18D3:1DA6       word_1AAD6
 18D3:1DA8       word_1AAD8
 18D3:1DAA       word_1AADA
 18D3:1DB4       word_1AAE4
 18D3:1DB6       word_1AAE6
 18D3:1DB8       byte_1AAE8
 18D3:1DBA       word_1AAEA
 18D3:1DBC       word_1AAEC
 18D3:1DBE       word_1AAEE
 18D3:1DDC       word_1AB0C
 18D3:1DDE       word_1AB0E
 18D3:1DE2       word_1AB12
 18D3:1DE4       word_1AB14
 18D3:1DE6       word_1AB16
 18D3:2174       word_1AEA4
 18D3:21DA       word_1AF0A
 18D3:21DC       word_1AF0C
 18D3:21E8       word_1AF18
 18D3:236C       word_1B09C
 18D3:236E       aError0
 18D3:2376       aInvalidFunctio
 18D3:238E       aNoSuchFileOrDi
 18D3:23A8       aPathNotFound
 18D3:23B7       aTooManyOpenFil
 18D3:23CB       aPermissionDeni
 18D3:23DD       aBadFileNumber
 18D3:23ED       aMemoryArenaTra
 18D3:2402       aNotEnoughMemor
 18D3:2414       aInvalidMemoryB
 18D3:2431       aInvalidEnviron
 18D3:2445       aInvalidFormat
 18D3:2454       aInvalidAccessC
 18D3:2468       aInvalidData
 18D3:2475       unk_1B1A5
 18D3:2476       aNoSuchDevice
 18D3:2485       aAttemptedToRem
 18D3:24AB       aNotSameDevice
 18D3:24BB       aNoMoreFiles
 18D3:24C9       aInvalidArgumen
 18D3:24DA       aArgListTooBig
 18D3:24EB       aExecFormatErro
 18D3:24FD       aCrossDeviceLin
 18D3:250F       unk_1B23F
 18D3:2510       unk_1B240
 18D3:2511       unk_1B241
 18D3:2512       unk_1B242
 18D3:2513       unk_1B243
 18D3:2514       unk_1B244
 18D3:2515       unk_1B245
 18D3:2516       unk_1B246
 18D3:2517       unk_1B247
 18D3:2518       unk_1B248
 18D3:2519       aMathArgument
 18D3:2527       aResultTooLarge
 18D3:2538       aFileAlreadyExi
 18D3:254C       aPossibleDeadlo
 18D3:255E       unk_1B28E
 18D3:255F       unk_1B28F
 18D3:2560       unk_1B290
 18D3:2561       unk_1B291
 18D3:2562       unk_1B292
 18D3:2563       unk_1B293
 18D3:2564       unk_1B294
 18D3:2565       unk_1B295
 18D3:2566       unk_1B296
 18D3:2567       unk_1B297
 18D3:2568       unk_1B298
 18D3:257E       word_1B2AE
 18D3:2580       word_1B2B0
 18D3:2582       off_1B2B2
 18D3:25B2       unk_1B2E2
 18D3:25B4       unk_1B2E4
 18D3:25B5       unk_1B2E5
 18D3:25B6       unk_1B2E6
 18D3:25B7       unk_1B2E7
 18D3:25B8       unk_1B2E8
 18D3:25B9       unk_1B2E9
 18D3:25BA       unk_1B2EA
 18D3:25BB       unk_1B2EB
 18D3:25BC       unk_1B2EC
 18D3:25BE       __ctype
 18D3:26F4       word_1B424
 18D3:26FA       word_1B42A
 18D3:26FC       aOutOfMemory
 18D3:270A       word_1B43A
 18D3:270C       word_1B43C
 18D3:270E       word_1B43E
 18D3:2710       word_1B440
 18D3:2712       seg_1B442
 18D3:2714       word_1B444
 18D3:2716       seg_1B446
 18D3:2718       word_1B448
 18D3:271A       seg_1B44A
 18D3:271C       aAbnormalProgra
 18D3:273C       byte_1B46C
 18D3:273D       byte_1B46D
 18D3:273E       byte_1B46E
 18D3:2740       word_1B470
 18D3:2742       word_1B472
 18D3:2744       word_1B474
 18D3:2746       word_1B476
 18D3:2748       word_1B478
 18D3:274A       word_1B47A
 18D3:274C       word_1B47C
 18D3:274E       word_1B47E
 18D3:2764       word_1B494
 18D3:2766       word_1B496
 18D3:277A       word_1B4AA
 18D3:277C       word_1B4AC
 18D3:28A2       word_1B5D2
 18D3:28A4       word_1B5D4
 18D3:28A6       word_1B5D6
 18D3:28A8       word_1B5D8
 18D3:28AA       word_1B5DA
 18D3:28AC       word_1B5DC
 18D3:28AE       aStringReferenc
 18D3:28CC       aStringRefere_0
 18D3:28EA       aStringRefere_1
 18D3:2908       off_1B638
 18D3:290C       off_1B63C
 18D3:290E       off_1B63E
 18D3:2910       off_1B640
 18D3:2912       aAAA
 18D3:2960       word_1B690
 18D3:2962       word_1B692
 18D3:2964       word_1B694
 18D3:2966       word_1B696
 18D3:2968       word_1B698
 18D3:296A       word_1B69A
 18D3:296C       word_1B69C
 18D3:296E       word_1B69E
 18D3:2970       word_1B6A0
 18D3:2972       word_1B6A2
 18D3:2974       word_1B6A4
 18D3:2976       word_1B6A6
 18D3:2978       word_1B6A8
 18D3:297A       word_1B6AA
 18D3:297C       dword_1B6AC
 18D3:2980       dword_1B6B0
 18D3:2984       dword_1B6B4
 18D3:2988       milliseconds
 18D3:298A       word_1B6BA
 18D3:298C       word_1B6BC
 18D3:298E       word_1B6BE
 18D3:2990       word_1B6C0
 18D3:2992       word_1B6C2
 18D3:2994       word_1B6C4
 18D3:2996       word_1B6C6
 18D3:2998       dest
 18D3:29A2       dbl_1B6D2
 18D3:29AA       word_1B6DA
 18D3:29AC       word_1B6DC
 18D3:29AE       word_1B6DE
 18D3:29B0       word_1B6E0
 18D3:29B2       word_1B6E2
 18D3:29B4       word_1B6E4
 18D3:29B6       word_1B6E6
 18D3:29B8       word_1B6E8
 18D3:29CC       word_1B6FC
 18D3:29CE       word_1B6FE
 18D3:29D0       word_1B700
 18D3:29D2       word_1B702
 18D3:29D4       word_1B704
 18D3:29D6       word_1B706
 18D3:29D8       word_1B708
 18D3:29DA       word_1B70A
 18D3:29DC       word_1B70C
 18D3:29DE       byte_1B70E
 18D3:2A2E       s1
 18D3:2A3C       value
 18D3:2A40       ptr
 18D3:2A44       word_1B774
 18D3:2A46       word_1B776
 18D3:2A48       word_1B778
 18D3:2A4A       word_1B77A
 18D3:2A4C       word_1B77C
 18D3:2A4E       word_1B77E
 18D3:2A50       word_1B780
 18D3:2A52       word_1B782
 18D3:2A54       word_1B784
 18D3:2A56       unk_1B786
 18D3:4996       unk_1D6C6
 18D3:4FD6       word_1DD06
 18D3:4FD8       word_1DD08
 18D3:4FDA       word_1DD0A
 18D3:4FDC       word_1DD0C
 18D3:4FDE       word_1DD0E
 18D3:4FE0       word_1DD10
 18D3:4FE2       word_1DD12
 18D3:4FE4       word_1DD14
 18D3:4FE6       word_1DD16
 18D3:4FE8       dword_1DD18
 18D3:4FEC       dword_1DD1C
 18D3:4FF6       byte_1DD26
 18D3:4FF8       unk_1DD28
 18D3:550C       byte_1E23C
 18D3:550D       byte_1E23D
 18D3:5796       byte_1E4C6
 18D3:5799       directory
 18D3:57E6       word_1E516
 18D3:57E8       word_1E518
 18D3:57EA       word_1E51A
 18D3:57EC       inregs
 18D3:57FC       segregs
 18D3:5806       word_1E536
 18D3:5808       word_1E538
 18D3:580A       word_1E53A
 18D3:580C       word_1E53C
 18D3:5812       dword_1E542
 18D3:5824       byte_1E554
 18D3:5826       byte_1E556
 18D3:5828       dword_1E558
 18D3:582C       block
 18D3:582E       word_1E55E
 18D3:58B0       dword_1E5E0
 18D3:58B4       dword_1E5E4
 18D3:58B8       word_1E5E8
 18D3:58BA       word_1E5EA
 18D3:58C0       dword_1E5F0
 18D3:58C4       dword_1E5F4

Program entry point at 0000:0000
